(dp1
S'output'
p2
S"<type 'exceptions.NameError'> name 'screenshot' is not defined"
p3
sS'layer'
p4
S'/Users/Steven/Documents/CS183/web2py/applications/final_project/views/default/index.html'
p5
sS'code'
p6
S'response.write(\'<link href="http://fonts.googleapis.com/css?family=Gravitas One" rel="stylesheet" type="text/css" />\\n\\n\', escape=False)\nresponse.write(\'<!DOCTYPE html>\\n<!--[if (gt IE 9)|!(IE)]><!--> <html class="no-js" lang="\', escape=False)\nresponse.write(T.accepted_language or \'en\')\nresponse.write(\'"> <!--<![endif]-->\\n  <head>\\n    <meta charset="utf-8">\\n    <!-- www.phpied.com/conditional-comments-block-downloads/ -->\\n    <!-- Always force latest IE rendering engine\\n         (even in intranet) & Chrome Frame\\n         Remove this if you use the .htaccess -->\\n    <meta http-equiv="X-UA-Compatible" content="IE=edge\', escape=False)\nresponse.write(not request.is_local and \',chrome=1\' or \'\')\nresponse.write(\'">\\n    <!--  Mobile Viewport Fix\\n          j.mp/mobileviewport & davidbcalhoun.com/2010/viewport-metatag\\n          device-width: Occupy full width of the screen in its current orientation\\n          initial-scale = 1.0 retains dimensions instead of zooming out if page height > device height\\n          user-scalable = yes allows the user to zoom in -->\\n    <meta name="viewport" content="width=device-width, initial-scale=1.0">\\n    <title>\', escape=False)\nresponse.write(response.title or request.application)\nresponse.write(\'</title>\\n    <!-- http://dev.w3.org/html5/markup/meta.name.html -->\\n    <meta name="application-name" content="\', escape=False)\nresponse.write(request.application)\nresponse.write(\'">\\n    <!-- Speaking of Google, don\\\'t forget to set your site up:\\n         http://google.com/webmasters -->\\n    <meta name="google-site-verification" content="">\\n    <!-- include stylesheets -->\\n    <link rel="stylesheet" href="\', escape=False)\nresponse.write(URL(\'static\',\'css/bootstrap.min.css\'))\nresponse.write(\'"/>\\n    <link rel="stylesheet" href="\', escape=False)\nresponse.write(URL(\'static\',\'css/web2py-bootstrap3.css\'))\nresponse.write(\'"/>\\n    <link rel="stylesheet" href="\', escape=False)\nresponse.write(URL(\'static\',\'css/myapp.css\'))\nresponse.write(\'"/>\\n    <link rel="stylesheet" href="\', escape=False)\nresponse.write(URL(\'static\', \'font-awesome-4.6.3/css/font-awesome.min.css\'))\nresponse.write(\'"/>\\n\\n    <link rel="shortcut icon" href="\', escape=False)\nresponse.write(URL(\'static\',\'images/favicon.ico\'))\nresponse.write(\'" type="image/x-icon">\\n    <link rel="apple-touch-icon" href="\', escape=False)\nresponse.write(URL(\'static\',\'images/favicon.png\'))\nresponse.write(\'">\\n    <!-- All JavaScript at the bottom, except for Modernizr which enables\\n         HTML5 elements & feature detects -->\\n    <script src="\', escape=False)\nresponse.write(URL(\'static\',\'js/modernizr-2.8.3.min.js\'))\nresponse.write(\'"></script>\\n    <!--[if lt IE 9]>\\n        <script src="\', escape=False)\nresponse.write(URL(\'static\',\'js/respond-1.4.2.min.js\'))\nresponse.write(\'"></script>\\n        <![endif]-->\\n    <!-- Favicons -->\\n    \', escape=False)\nresponse.write(\'<script type="text/javascript"><!--\\n    // These variables are used by the web2py_ajax_init function in web2py_ajax.js (which is loaded below).\\n    var w2p_ajax_confirm_message = "\', escape=False)\nresponse.write(T(\'Are you sure you want to delete this object?\'))\nresponse.write(\'";\\n    var w2p_ajax_disable_with_message = "\', escape=False)\nresponse.write(T(\'Working...\'))\nresponse.write(\'";\\n    var w2p_ajax_date_format = "\', escape=False)\nresponse.write(T(\'%Y-%m-%d\'))\nresponse.write(\'";\\n    var w2p_ajax_datetime_format = "\', escape=False)\nresponse.write(T(\'%Y-%m-%d %H:%M:%S\'))\nresponse.write(\'";\\n    var ajax_error_500 = \\\'\', escape=False)\nresponse.write(T.M(\'An error occured, please [[reload %s]] the page\') % URL(args=request.args, vars=request.get_vars))\nresponse.write("\'\\n    //--></script>\\n", escape=False)\nresponse.files.insert(0,URL(\'static\',\'js/jquery.js\'))\nresponse.files.insert(1,URL(\'static\',\'css/calendar.css\'))\nresponse.files.insert(2,URL(\'static\',\'js/calendar.js\'))\nresponse.files.insert(3,URL(\'static\',\'js/web2py.js\'))\nresponse.include_meta()\nresponse.include_files()\nresponse.write(\'\\n\', escape=False)\nresponse.write(\' <!-- this includes jquery.js, calendar.js/.css and web2py.js -->\\n    \', escape=False)\nresponse.write(\'\\n<script src="\', escape=False)\nresponse.write(URL(\'static\', \'js/vue.js\'))\nresponse.write(\'"></script>\\n<script>\\n    var get_posts_url = "\', escape=False)\nresponse.write(URL(\'api\', \'get_posts\'))\nresponse.write(\'";\\n    var add_post_url = "\', escape=False)\nresponse.write(URL(\'api\', \'add_post\', user_signature=True))\nresponse.write(\'";\\n    var del_post_url = "\', escape=False)\nresponse.write(URL(\'api\', \'del_post\', user_signature=True))\nresponse.write(\'";\\n    var edit_post_url = "\', escape=False)\nresponse.write(URL(\'api\', \'edit_post\', user_signature=True))\nresponse.write(\'";\\n    var reply_post_url = "\', escape=False)\nresponse.write(URL(\'api\', \'reply_post\', user_signature=True))\nresponse.write(\'";\\n\\n\\n</script>\\n\', escape=False)\nresponse.write(\'\\n    \', escape=False)\n# using sidebars need to know what sidebar you want to use\nmc0 = \'col-md-12\'\nmc1 = \'col-md-9\'\nmc2 = \'col-md-6\'\nleft_sidebar_enabled = globals().get(\'left_sidebar_enabled\', False)\nright_sidebar_enabled = globals().get(\'right_sidebar_enabled\', False)\nmiddle_column = {0: mc0, 1: mc1, 2: mc2}[\n(left_sidebar_enabled and 1 or 0)+(right_sidebar_enabled and 1 or 0)]\nresponse.write(\'\\n  </head>\\n  <body>\\n    <!--[if lt IE 8]><p class="browserupgrade">You are using an <strong>outdated</strong> browser. Please <a href="http://browsehappy.com/">upgrade your browser</a> to improve your experience.</p><![endif]-->\\n    <div class="w2p_flash alert alert-dismissable">\', escape=False)\nresponse.write(response.flash or \'\')\nresponse.write(\'</div>\\n    <!-- Navbar ======================================= -->\\n    <nav class="navbar navbar-default navbar-fixed-top" role="navigation">\\n      <div class="container-fluid">\\n        <div class="navbar-header">\\n          <button type="button" class="navbar-toggle" data-toggle="collapse" data-target=".navbar-collapse">\\n            <span class="sr-only">Toggle navigation</span>\\n            <span class="icon-bar"></span>\\n            <span class="icon-bar"></span>\\n            <span class="icon-bar"></span>\\n          </button>\\n          \', escape=False)\nresponse.write(response.logo or \'\')\nresponse.write(\'\\n        </div>\\n        <div class="collapse navbar-collapse navbar-ex1-collapse">\\n          <ul class="nav navbar-nav navbar-right">\\n            \', escape=False)\nresponse.write(\'auth\' in globals() and auth.navbar(\'Welcome\',mode=\'dropdown\') or \'\')\nresponse.write(\'\\n          </ul>\\n          \', escape=False)\nif response.menu:\n    response.write(\'\\n          \', escape=False)\n    response.write(MENU(response.menu, _class=\'nav navbar-nav\',li_class=\'dropdown\',ul_class=\'dropdown-menu\'))\n    response.write(\'\\n          \', escape=False)\n    pass\nresponse.write(\'\\n        </div>\\n      </div>\\n    </nav>\\n    <!-- Masthead ===================================== -->\\n    \', escape=False)\nresponse.write(\'\\n    \', escape=False)\nresponse.write(\'\\n    <!-- Main ========================================= -->\\n    <!-- Begin page content -->\\n    <div class="container-fluid main-container">\\n      \', escape=False)\nif left_sidebar_enabled:\n    response.write(\'\\n        <div class="col-md-3 left-sidebar">\\n            \', escape=False)\n    response.write(\'\\n            <h3>Left Sidebar</h3>\\n            <p></p>\\n            \', escape=False)\n    response.write(\'\\n        </div>\\n      \', escape=False)\n    pass\nresponse.write(\'\\n\\n      <div class="\', escape=False)\nresponse.write(middle_column)\nresponse.write(\'">\\n        \', escape=False)\nresponse.write(\'\\n        \', escape=False)\nresponse.write(\'\\n\\n\', escape=False)\nresponse.write(\'\\n\\n<div class="main_content">\\n\', escape=False)\nif auth.user_id:\n    response.write(\'\\n    <div id="vue-div" class="display:none">\\n\\n        <h2>Posts</h2>\\n\\n        <div class="add-new-post">\\n            <button v-if="!is_adding_post" class="btn btn-primary btn-lg" v-on:click="add_post_button()" v-bind:class="{\\\'disabled\\\': !logged_in}"><i class="fa fa-plus"></i> Add Post</button>\\n        </div>\\n\\n        <div v-if="is_adding_post" id="add_post_div"><br>\\n            <form action="#" v-on:submit.prevent="add_post" class="form-horizontal" enctype="multipart/form-data" method="post">\\n                <div class="form-group" id="add-new-post">\\n                    <textarea class="form-control" v-model="form_content"></textarea><br>\\n                    <input class="btn btn-primary btn-lg" id="add_post_submit" type="submit" value="Post"/>\\n                    <input class="btn btn-default btn-lg" id="add_post_cancel" type="button" value="Cancel" v-on:click="add_post_button()"/>\\n                </div>\\n            </form>\\n        </div>\\n\\n        <div v-for="post in posts" class="post_list">\\n            <div class="post">\\n                <div v-if="!(edit_post_id == post.id)">\\n                    <h3>${post.post_content}</h3>\\n                    <br>Author: <i>${post.user_email}</i>\\n                    <br>Date: <i>${post.created_on}</i>\\n                    <div v-if="post.created_on != post.updated_on">\\n                        Updated: <i>${post.updated_on}</i>\\n                    </div>\\n                    <div v-if="logged_in" class="icons">\\n                        <i class="fa fa-pencil" v-if="post.op" v-on:click="update_post(post.id, post.post_content)"></i>\\n                        <i class="fa fa-trash-o" v-if="post.op" v-on:click="delete_post(post.id)"></i>\\n                    </div>\\n                    <div v-if="logged_in" class="icons">\\n                        <i class="fa fa-reply" v-if="!post.op" v-on:click="reply_post_button(post.id)"></i>\\n                    </div>\\n                    <div v-if="logged_in">\\n                        <div v-if="is_replying_post" id="reply_post_div"><br>\\n                            <form action="#" v-on:submit.prevent="reply_post" class="form-horizontal" enctype="multipart/form-data" method="post" v-if="reply_post_id == post.id">\\n                                <div class="form-group" id="reply-new-post">\\n                                    <textarea class="form-control" v-model="form_reply_content"></textarea><br>\\n                                    <div class="text_btns">\\n                                        <input class="btn btn-primary btn-lg" id="reply_post_submit" type="submit" value="Reply"/>\\n                                        <input class="btn btn-default btn-lg" id="reply_post_cancel" type="button" value="Cancel" v-on:click="reply_post_button()" v-on:click="reply_post_id = null" />\\n                                    </div>\\n                                </div>\\n                            </form>\\n                        </div>\\n                    </div>\\n                </div>\\n                <form action="#" v-on:submit.prevent="edit_post" class="form-horizontal" enctype="multipart/form-data" method="post" v-if="edit_post_id == post.id">\\n                    <div class="form-group">\\n                        <textarea class="form-control" v-model="form_edit_content"></textarea><br>\\n                        <div class="text_btns">\\n                            <input class="btn btn-primary btn-lg" id="edit_post_submit" type="submit" value="Edit"/>\\n                            <input class="btn btn-default btn-lg" id="edit_post_cancel" type="button" value="Cancel" v-on:click="edit_post_id = null"/>\\n                        </div>\\n                    </div>\\n                </form>\\n            </div>\\n            <div v-if="post.replies" class="rply_post">\\n                <h4>${reply.post_content}</h4>\\n            </div>\\n        </div>\\n\\n        <div v-if="has_more" class="show_more">\\n            <button class="btn btn-default btn-lg" id="load-more" v-on:click="get_more()">Load more</button>\\n        </div>\\n\\n    </div>\\n\\n\', escape=False)\nelse:\n    response.write(\'\\n\\n    <!-- Homepage -->\\n    <h1 class="title">PeerPressure</h1>\\n\\n    <div class="homebtns">\\n        <a href="\', escape=False)\n    response.write(URL(\'user\', \'\'))\n    response.write(\'" class="btn btn-primary btn-lg raised">Login</a>\\n        <a href="\', escape=False)\n    response.write(URL(\'user/register\', \'\'))\n    response.write(\'" class="btn btn-default btn-lg raised">Sign Up</a>\\n    </div>\\n\\n    <hr class="hrline">\\n\\n    <div>\\n        <div class="homedesc" style="float: left; width: 50%">\\n            <h3>What is PeerPressure?</h3>\\n            <p>PeerPressure is a website which is based on peer collaboration.  Students are able to create posts\\n            regarding any subject up for discussion such as: homework problems, school events, or study groups.  The possibilities\\n            are endless!  After this other students can respond to the original post, adding additional information, answering a question,\\n            or just providing feedback.  This peer-to-peer communication empowers students to help their fellow classmates and\\n            encourages teamwork and collaboration.</p>\\n        </div>\\n        <div class="homeimg" style="float: left; width: 50%">\\n            <div id="slider">\\n                <div v-for="number in [currentNumber]">\\n                    <transition name="fade">\\n                        <img :src="images[Math.abs(currentNumber) % images.length]" class="imgresize" />\\n                    </transition>\\n                </div>\\n            </div>\\n        </div>\\n    </div>\\n\\n    <div>\\n        <div class="homeimg2" style="float: left; width: 55%">\\n            <i class="fa fa-users fa-5x" aria-hidden="true"></i>\\n            &emsp;&emsp;&emsp;&emsp;&emsp;\\n            <i class="fa fa-plus-circle fa-5x" aria-hidden="true"></i>\\n            &emsp;&emsp;&emsp;&emsp;&emsp;\\n            <i class="fa fa-pencil fa-5x" aria-hidden="true"></i>\\n            &emsp;&emsp;&emsp;&emsp;&emsp;\\n            <i class="fa fa-trash fa-5x" aria-hidden="true"></i>\\n            &emsp;&emsp;&emsp;&emsp;&emsp;\\n            <i class="fa fa-reply fa-5x" aria-hidden="true"></i>\\n        </div>\\n        <div class="homedesc" style="float: right; width: 45%">\\n            <h3>Features</h3>\\n            <ul>\\n                <li>Unique user accounts - Individual accounts for each student</li>\\n                <li>Create posts - Topics are unlimited</li>\\n                <li>Edit posts - Change your question or your responses</li>\\n                <li>Delete posts - Get rid of invalid information</li>\\n                <li>Reply to posts - Collaboration between students</li>\\n                <li>Posts show creator and when it was created</li>\\n                <li>Ask questions and get answers 24/7 - Not just in the classroom</li>\\n            </ul>\\n    </div>\\n        <img src="\', escape=False)\n    response.write(URL(\'static\', \'screenshot.png\', args=screenshot))\n    response.write(\'" />\\n    <div>\\n\\n    </div>\\n\', escape=False)\n    pass\nresponse.write(\'\\n</div>\\n\\n<script src="\', escape=False)\nresponse.write(URL(\'static\', \'js/default_index.js\'))\nresponse.write(\'"></script>\\n    <script>$( document ).ready(function() {\\n        APP.img.startRotation();\\n    });</script>\\n\', escape=False)\nresponse.write(\'\\n        \', escape=False)\nresponse.write(\'\\n      </div>\\n\\n      \', escape=False)\nif right_sidebar_enabled:\n    response.write(\'\\n        <div class="col-md-3">\\n            \', escape=False)\n    response.write(\'\\n            <h3>Right Sidebar</h3>\\n            <p></p>\\n            \', escape=False)\n    response.write(\'\\n        </div>\\n      \', escape=False)\n    pass\nresponse.write(\'\\n\\n    </div>\\n\\n    \', escape=False)\nresponse.write(\' <!-- this is default footer -->\\n    <footer class="footer">\\n      <div class="container-fluid">\\n        <div class="copyright pull-left">\', escape=False)\nresponse.write(T(\'Copyright\'))\nresponse.write(\' &#169; \', escape=False)\nresponse.write(request.now.year)\nresponse.write(\'</div>\\n          <div id="poweredBy" class="pull-right">\\n            \', escape=False)\nresponse.write(T(\'Powered by\'))\nresponse.write(\'\\n            <a href="http://www.web2py.com/">web2py</a>\\n          </div>\\n      </div>\\n    </footer>\\n    \', escape=False)\nresponse.write(\'\\n    <!-- The javascript =============================== -->\\n    <script src="\', escape=False)\nresponse.write(URL(\'static\',\'js/bootstrap.min.js\'))\nresponse.write(\'"></script>\\n    <script src="\', escape=False)\nresponse.write(URL(\'static\',\'js/web2py-bootstrap3.js\'))\nresponse.write(\'"></script>\\n    \', escape=False)\nresponse.write(\'\\n    \', escape=False)\nif response.google_analytics_id:\n    response.write(\'\\n    <!-- Analytics ==================================== -->\\n    <script src="\', escape=False)\n    response.write(URL(\'static\',\'js/analytics.min.js\'))\n    response.write(\'"></script>\\n    <script type="text/javascript">\\n      analytics.initialize({\\n      \\\'Google Analytics\\\':{trackingId:\\\'\', escape=False)\n    response.write(response.google_analytics_id)\n    response.write("\'}\\n      });\\n    </script>\\n    ", escape=False)\n    pass\nresponse.write(\'\\n    <!-- Share ============================y============ -->\\n    <script src="\', escape=False)\nresponse.write(URL(\'static\',\'js/share.js\',vars=dict(static=URL(\'static\',\'images\'))))\nresponse.write(\'"></script>\\n  </body>\\n</html>\\n\', escape=False)'
p7
sS'snapshot'
p8
(dp9
S'exception'
p10
(dp11
S'__hash__'
p12
S"<method-wrapper '__hash__' of exceptions.NameError object>"
p13
sS'__setattr__'
p14
S"<method-wrapper '__setattr__' of exceptions.NameError object>"
p15
sS'__reduce_ex__'
p16
S'<built-in method __reduce_ex__ of exceptions.NameError object>'
p17
sS'__getslice__'
p18
S"<method-wrapper '__getslice__' of exceptions.NameError object>"
p19
sS'__getitem__'
p20
S"<method-wrapper '__getitem__' of exceptions.NameError object>"
p21
sS'__setstate__'
p22
S'<built-in method __setstate__ of exceptions.NameError object>'
p23
sS'args'
p24
S'("name \'screenshot\' is not defined",)'
p25
sS'__reduce__'
p26
S'<built-in method __reduce__ of exceptions.NameError object>'
p27
sS'__str__'
p28
S"<method-wrapper '__str__' of exceptions.NameError object>"
p29
sS'__format__'
p30
S'<built-in method __format__ of exceptions.NameError object>'
p31
sS'__getattribute__'
p32
S"<method-wrapper '__getattribute__' of exceptions.NameError object>"
p33
sS'__class__'
p34
S"<type 'exceptions.NameError'>"
p35
sS'__unicode__'
p36
S'<built-in method __unicode__ of exceptions.NameError object>'
p37
sS'__delattr__'
p38
S"<method-wrapper '__delattr__' of exceptions.NameError object>"
p39
sS'__subclasshook__'
p40
S'<built-in method __subclasshook__ of type object>'
p41
sS'__repr__'
p42
S"<method-wrapper '__repr__' of exceptions.NameError object>"
p43
sS'__dict__'
p44
S'{}'
p45
sS'__sizeof__'
p46
S'<built-in method __sizeof__ of exceptions.NameError object>'
p47
sS'__doc__'
p48
S"'Name not found globally.'"
p49
sS'__init__'
p50
S"<method-wrapper '__init__' of exceptions.NameError object>"
p51
sS'__new__'
p52
S'<built-in method __new__ of type object>'
p53
ssS'evalue'
p54
S"name 'screenshot' is not defined"
p55
sS'request'
p56
cgluon.html
XML_unpickle
p57
(S's\x89]\x00\x00<div><table><tr><td style="font-weight:bold;vertical-align:top;">ajax</td><td style="vertical-align:top;">:</td><td><div>False</div></td></tr><tr><td style="font-weight:bold;vertical-align:top;">application</td><td style="vertical-align:top;">:</td><td><div>final_project</div></td></tr><tr><td style="font-weight:bold;vertical-align:top;">args</td><td style="vertical-align:top;">:</td><td><div><table></table></div></td></tr><tr><td style="font-weight:bold;vertical-align:top;">cid</td><td style="vertical-align:top;">:</td><td><div>None</div></td></tr><tr><td style="font-weight:bold;vertical-align:top;">client</td><td style="vertical-align:top;">:</td><td><div>127.0.0.1</div></td></tr><tr><td style="font-weight:bold;vertical-align:top;">controller</td><td style="vertical-align:top;">:</td><td><div>default</div></td></tr><tr><td style="font-weight:bold;vertical-align:top;">cookies</td><td style="vertical-align:top;">:</td><td><div><table><tr><td style="font-weight:bold;vertical-align:top;">session_id_admin</td><td style="vertical-align:top;">:</td><td><div>127.0.0.1-3728c949-ab45-45eb-85e3-9476a8fcecec<table><tr><td style="font-weight:bold;vertical-align:top;">comment</td><td style="vertical-align:top;">:</td><td><div></div></td></tr><tr><td style="font-weight:bold;vertical-align:top;">domain</td><td style="vertical-align:top;">:</td><td><div></div></td></tr><tr><td style="font-weight:bold;vertical-align:top;">expires</td><td style="vertical-align:top;">:</td><td><div></div></td></tr><tr><td style="font-weight:bold;vertical-align:top;">httponly</td><td style="vertical-align:top;">:</td><td><div></div></td></tr><tr><td style="font-weight:bold;vertical-align:top;">max-age</td><td style="vertical-align:top;">:</td><td><div></div></td></tr><tr><td style="font-weight:bold;vertical-align:top;">path</td><td style="vertical-align:top;">:</td><td><div></div></td></tr><tr><td style="font-weight:bold;vertical-align:top;">secure</td><td style="vertical-align:top;">:</td><td><div></div></td></tr><tr><td style="font-weight:bold;vertical-align:top;">version</td><td style="vertical-align:top;">:</td><td><div></div></td></tr></table></div></td></tr><tr><td style="font-weight:bold;vertical-align:top;">session_id_final_project</td><td style="vertical-align:top;">:</td><td><div>63:b4cbdcb6-e7a5-4bd3-b503-8aa8f5220524<table><tr><td style="font-weight:bold;vertical-align:top;">comment</td><td style="vertical-align:top;">:</td><td><div></div></td></tr><tr><td style="font-weight:bold;vertical-align:top;">domain</td><td style="vertical-align:top;">:</td><td><div></div></td></tr><tr><td style="font-weight:bold;vertical-align:top;">expires</td><td style="vertical-align:top;">:</td><td><div></div></td></tr><tr><td style="font-weight:bold;vertical-align:top;">httponly</td><td style="vertical-align:top;">:</td><td><div></div></td></tr><tr><td style="font-weight:bold;vertical-align:top;">max-age</td><td style="vertical-align:top;">:</td><td><div></div></td></tr><tr><td style="font-weight:bold;vertical-align:top;">path</td><td style="vertical-align:top;">:</td><td><div></div></td></tr><tr><td style="font-weight:bold;vertical-align:top;">secure</td><td style="vertical-align:top;">:</td><td><div></div></td></tr><tr><td style="font-weight:bold;vertical-align:top;">version</td><td style="vertical-align:top;">:</td><td><div></div></td></tr></table></div></td></tr><tr><td style="font-weight:bold;vertical-align:top;">session_id_welcome</td><td style="vertical-align:top;">:</td><td><div>127.0.0.1-767c90c6-c544-4b4d-8a26-bed0988b1d49<table><tr><td style="font-weight:bold;vertical-align:top;">comment</td><td style="vertical-align:top;">:</td><td><div></div></td></tr><tr><td style="font-weight:bold;vertical-align:top;">domain</td><td style="vertical-align:top;">:</td><td><div></div></td></tr><tr><td style="font-weight:bold;vertical-align:top;">expires</td><td style="vertical-align:top;">:</td><td><div></div></td></tr><tr><td style="font-weight:bold;vertical-align:top;">httponly</td><td style="vertical-align:top;">:</td><td><div></div></td></tr><tr><td style="font-weight:bold;vertical-align:top;">max-age</td><td style="vertical-align:top;">:</td><td><div></div></td></tr><tr><td style="font-weight:bold;vertical-align:top;">path</td><td style="vertical-align:top;">:</td><td><div></div></td></tr><tr><td style="font-weight:bold;vertical-align:top;">secure</td><td style="vertical-align:top;">:</td><td><div></div></td></tr><tr><td style="font-weight:bold;vertical-align:top;">version</td><td style="vertical-align:top;">:</td><td><div></div></td></tr></table></div></td></tr></table></div></td></tr><tr><td style="font-weight:bold;vertical-align:top;">env</td><td style="vertical-align:top;">:</td><td><div><table><tr><td style="font-weight:bold;vertical-align:top;">HTTP_ACCEPT</td><td style="vertical-align:top;">:</td><td><div>text/html,application/xhtml+xml,application/xml;q=0.9,image/webp,*/*;q=0.8</div></td></tr><tr><td style="font-weight:bold;vertical-align:top;">HTTP_ACCEPT_ENCODING</td><td style="vertical-align:top;">:</td><td><div>gzip, deflate, sdch</div></td></tr><tr><td style="font-weight:bold;vertical-align:top;">HTTP_ACCEPT_LANGUAGE</td><td style="vertical-align:top;">:</td><td><div>en-US,en;q=0.8</div></td></tr><tr><td style="font-weight:bold;vertical-align:top;">HTTP_CACHE_CONTROL</td><td style="vertical-align:top;">:</td><td><div>max-age=0</div></td></tr><tr><td style="font-weight:bold;vertical-align:top;">HTTP_CONNECTION</td><td style="vertical-align:top;">:</td><td><div>keep-alive</div></td></tr><tr><td style="font-weight:bold;vertical-align:top;">HTTP_COOKIE</td><td style="vertical-align:top;">:</td><td><div>session_id_admin=127.0.0.1-3728c949-ab45-45eb-85e3-9476a8fcecec; session_id_welcome=127.0.0.1-767c90c6-c544-4b4d-8a26-bed0988b1d49; session_id_final_project=&quot;63:b4cbdcb6-e7a5-4bd3-b503-8aa8f5220524&quot;</div></td></tr><tr><td style="font-weight:bold;vertical-align:top;">HTTP_HOST</td><td style="vertical-align:top;">:</td><td><div>127.0.0.1:8000</div></td></tr><tr><td style="font-weight:bold;vertical-align:top;">HTTP_REFERER</td><td style="vertical-align:top;">:</td><td><div>http://127.0.0.1:8000/final_project</div></td></tr><tr><td style="font-weight:bold;vertical-align:top;">HTTP_UPGRADE_INSECURE_REQUESTS</td><td style="vertical-align:top;">:</td><td><div>1</div></td></tr><tr><td style="font-weight:bold;vertical-align:top;">HTTP_USER_AGENT</td><td style="vertical-align:top;">:</td><td><div>Mozilla/5.0 (Macintosh; Intel Mac OS X 10_11_6) AppleWebKit/537.36 (KHTML, like Gecko) Chrome/53.0.2785.143 Safari/537.36</div></td></tr><tr><td style="font-weight:bold;vertical-align:top;">PATH_INFO</td><td style="vertical-align:top;">:</td><td><div>/final_project/default/index</div></td></tr><tr><td style="font-weight:bold;vertical-align:top;">QUERY_STRING</td><td style="vertical-align:top;">:</td><td><div></div></td></tr><tr><td style="font-weight:bold;vertical-align:top;">REMOTE_ADDR</td><td style="vertical-align:top;">:</td><td><div>127.0.0.1</div></td></tr><tr><td style="font-weight:bold;vertical-align:top;">REMOTE_PORT</td><td style="vertical-align:top;">:</td><td><div>54738</div></td></tr><tr><td style="font-weight:bold;vertical-align:top;">REQUEST_METHOD</td><td style="vertical-align:top;">:</td><td><div>GET</div></td></tr><tr><td style="font-weight:bold;vertical-align:top;">SCRIPT_NAME</td><td style="vertical-align:top;">:</td><td><div></div></td></tr><tr><td style="font-weight:bold;vertical-align:top;">SERVER_NAME</td><td style="vertical-align:top;">:</td><td><div>eduroam-169-233-220-195.ucsc.edu</div></td></tr><tr><td style="font-weight:bold;vertical-align:top;">SERVER_PORT</td><td style="vertical-align:top;">:</td><td><div>8000</div></td></tr><tr><td style="font-weight:bold;vertical-align:top;">SERVER_PROTOCOL</td><td style="vertical-align:top;">:</td><td><div>HTTP/1.1</div></td></tr><tr><td style="font-weight:bold;vertical-align:top;">SERVER_SOFTWARE</td><td style="vertical-align:top;">:</td><td><div>Rocket 1.2.6</div></td></tr><tr><td style="font-weight:bold;vertical-align:top;">app_folders</td><td style="vertical-align:top;">:</td><td><div>set([&#x27;/Users/Steven/Documents/CS183/web2py/applications/final_project/&#x27;, &#x27;/Users/Steven/Documents/CS183/web2py/applications/welcome/&#x27;])</div></td></tr><tr><td style="font-weight:bold;vertical-align:top;">applications_parent</td><td style="vertical-align:top;">:</td><td><div>/Users/Steven/Documents/CS183/web2py</div></td></tr><tr><td style="font-weight:bold;vertical-align:top;">cmd_args</td><td style="vertical-align:top;">:</td><td><div><table></table></div></td></tr><tr><td style="font-weight:bold;vertical-align:top;">cmd_options</td><td style="vertical-align:top;">:</td><td><div>&lt;Values at 0x10488d950: {&#x27;verbose&#x27;: False, &#x27;ip&#x27;: &#x27;127.0.0.1&#x27;, &#x27;debuglevel&#x27;: 30, &#x27;with_scheduler&#x27;: False, &#x27;shutdown_timeout&#x27;: 5, &#x27;taskbar&#x27;: False, &#x27;with_coverage&#x27;: False, &#x27;pid_filename&#x27;: &#x27;httpserver.pid&#x27;, &#x27;maxthreads&#x27;: None, &#x27;softcron&#x27;: False, &#x27;server_name&#x27;: &#x27;eduroam-169-233-220-195.ucsc.edu&#x27;, &#x27;bpython&#x27;: False, &#x27;nogui&#x27;: False, &#x27;port&#x27;: 8000, &#x27;print_errors&#x27;: True, &#x27;extcron&#x27;: False, &#x27;runcron&#x27;: False, &#x27;run_system_tests&#x27;: False, &#x27;test&#x27;: None, &#x27;folder&#x27;: &#x27;/Users/Steven/Documents/CS183/web2py&#x27;, &#x27;config&#x27;: &#x27;&#x27;, &#x27;minthreads&#x27;: None, &#x27;shell&#x27;: None, &#x27;run&#x27;: &#x27;&#x27;, &#x27;log_filename&#x27;: &#x27;httpserver.log&#x27;, &#x27;profiler_dir&#x27;: None, &#x27;args&#x27;: [&#x27;&#x27;], &#x27;socket_timeout&#x27;: 5, &#x27;ssl_ca_certificate&#x27;: None, &#x27;scheduler&#x27;: None, &#x27;interfaces&#x27;: None, &#x27;ssl_private_key&#x27;: &#x27;&#x27;, &#x27;gae&#x27;: None, &#x27;password&#x27;: &#x27;******&#x27;, &#x27;request_queue_size&#x27;: 5, &#x27;ssl_certificate&#x27;: &#x27;&#x27;, &#x27;cronjob&#x27;: False, &#x27;numthreads&#x27;: None, &#x27;quiet&#x27;: False, &#x27;import_models&#x27;: False, &#x27;timeout&#x27;: 10, &#x27;plain&#x27;: False, &#x27;nobanner&#x27;: False}&gt;</div></td></tr><tr><td style="font-weight:bold;vertical-align:top;">db_sessions</td><td style="vertical-align:top;">:</td><td><div>set([&#x27;final_project&#x27;])</div></td></tr><tr><td style="font-weight:bold;vertical-align:top;">debugging</td><td style="vertical-align:top;">:</td><td><div>False</div></td></tr><tr><td style="font-weight:bold;vertical-align:top;">gluon_parent</td><td style="vertical-align:top;">:</td><td><div>/Users/Steven/Documents/CS183/web2py</div></td></tr><tr><td style="font-weight:bold;vertical-align:top;">http_accept</td><td style="vertical-align:top;">:</td><td><div>text/html,application/xhtml+xml,application/xml;q=0.9,image/webp,*/*;q=0.8</div></td></tr><tr><td style="font-weight:bold;vertical-align:top;">http_accept_encoding</td><td style="vertical-align:top;">:</td><td><div>gzip, deflate, sdch</div></td></tr><tr><td style="font-weight:bold;vertical-align:top;">http_accept_language</td><td style="vertical-align:top;">:</td><td><div>en-US,en;q=0.8</div></td></tr><tr><td style="font-weight:bold;vertical-align:top;">http_cache_control</td><td style="vertical-align:top;">:</td><td><div>max-age=0</div></td></tr><tr><td style="font-weight:bold;vertical-align:top;">http_connection</td><td style="vertical-align:top;">:</td><td><div>keep-alive</div></td></tr><tr><td style="font-weight:bold;vertical-align:top;">http_cookie</td><td style="vertical-align:top;">:</td><td><div>session_id_admin=127.0.0.1-3728c949-ab45-45eb-85e3-9476a8fcecec; session_id_welcome=127.0.0.1-767c90c6-c544-4b4d-8a26-bed0988b1d49; session_id_final_project=&quot;63:b4cbdcb6-e7a5-4bd3-b503-8aa8f5220524&quot;</div></td></tr><tr><td style="font-weight:bold;vertical-align:top;">http_host</td><td style="vertical-align:top;">:</td><td><div>127.0.0.1:8000</div></td></tr><tr><td style="font-weight:bold;vertical-align:top;">http_referer</td><td style="vertical-align:top;">:</td><td><div>http://127.0.0.1:8000/final_project</div></td></tr><tr><td style="font-weight:bold;vertical-align:top;">http_upgrade_insecure_requests</td><td style="vertical-align:top;">:</td><td><div>1</div></td></tr><tr><td style="font-weight:bold;vertical-align:top;">http_user_agent</td><td style="vertical-align:top;">:</td><td><div>Mozilla/5.0 (Macintosh; Intel Mac OS X 10_11_6) AppleWebKit/537.36 (KHTML, like Gecko) Chrome/53.0.2785.143 Safari/537.36</div></td></tr><tr><td style="font-weight:bold;vertical-align:top;">is_jython</td><td style="vertical-align:top;">:</td><td><div>False</div></td></tr><tr><td style="font-weight:bold;vertical-align:top;">is_pypy</td><td style="vertical-align:top;">:</td><td><div>False</div></td></tr><tr><td style="font-weight:bold;vertical-align:top;">is_source</td><td style="vertical-align:top;">:</td><td><div>True</div></td></tr><tr><td style="font-weight:bold;vertical-align:top;">local_hosts</td><td style="vertical-align:top;">:</td><td><div><table><tr><td><div>eduroam-169-233-220-195.ucsc.edu</div></td></tr><tr><td><div>169.233.220.195</div></td></tr><tr><td><div>::1</div></td></tr><tr><td><div>::ffff:127.0.0.1</div></td></tr><tr><td><div>127.0.0.1</div></td></tr></table></div></td></tr><tr><td style="font-weight:bold;vertical-align:top;">path_info</td><td style="vertical-align:top;">:</td><td><div>/final_project/default/index</div></td></tr><tr><td style="font-weight:bold;vertical-align:top;">query_string</td><td style="vertical-align:top;">:</td><td><div></div></td></tr><tr><td style="font-weight:bold;vertical-align:top;">remote_addr</td><td style="vertical-align:top;">:</td><td><div>127.0.0.1</div></td></tr><tr><td style="font-weight:bold;vertical-align:top;">remote_port</td><td style="vertical-align:top;">:</td><td><div>54738</div></td></tr><tr><td style="font-weight:bold;vertical-align:top;">request_method</td><td style="vertical-align:top;">:</td><td><div>GET</div></td></tr><tr><td style="font-weight:bold;vertical-align:top;">request_uri</td><td style="vertical-align:top;">:</td><td><div>/final_project/default/index</div></td></tr><tr><td style="font-weight:bold;vertical-align:top;">script_name</td><td style="vertical-align:top;">:</td><td><div></div></td></tr><tr><td style="font-weight:bold;vertical-align:top;">server_name</td><td style="vertical-align:top;">:</td><td><div>eduroam-169-233-220-195.ucsc.edu</div></td></tr><tr><td style="font-weight:bold;vertical-align:top;">server_port</td><td style="vertical-align:top;">:</td><td><div>8000</div></td></tr><tr><td style="font-weight:bold;vertical-align:top;">server_protocol</td><td style="vertical-align:top;">:</td><td><div>HTTP/1.1</div></td></tr><tr><td style="font-weight:bold;vertical-align:top;">server_software</td><td style="vertical-align:top;">:</td><td><div>Rocket 1.2.6</div></td></tr><tr><td style="font-weight:bold;vertical-align:top;">web2py_path</td><td style="vertical-align:top;">:</td><td><div>/Users/Steven/Documents/CS183/web2py</div></td></tr><tr><td style="font-weight:bold;vertical-align:top;">web2py_version</td><td style="vertical-align:top;">:</td><td><div>2.14.6-stable+timestamp.2016.05.10.00.21.47</div></td></tr><tr><td style="font-weight:bold;vertical-align:top;">wsgi.errors</td><td style="vertical-align:top;">:</td><td><div>&lt;open file &#x27;&lt;stderr&gt;&#x27;, mode &#x27;w&#x27; at 0x1030611e0&gt;</div></td></tr><tr><td style="font-weight:bold;vertical-align:top;">wsgi.file_wrapper</td><td style="vertical-align:top;">:</td><td><div>&lt;class wsgiref.util.FileWrapper at 0x104829a10&gt;</div></td></tr><tr><td style="font-weight:bold;vertical-align:top;">wsgi.input</td><td style="vertical-align:top;">:</td><td><div>&lt;socket._fileobject object at 0x109ea3cd0&gt;</div></td></tr><tr><td style="font-weight:bold;vertical-align:top;">wsgi.multiprocess</td><td style="vertical-align:top;">:</td><td><div>False</div></td></tr><tr><td style="font-weight:bold;vertical-align:top;">wsgi.multithread</td><td style="vertical-align:top;">:</td><td><div>True</div></td></tr><tr><td style="font-weight:bold;vertical-align:top;">wsgi.run_once</td><td style="vertical-align:top;">:</td><td><div>False</div></td></tr><tr><td style="font-weight:bold;vertical-align:top;">wsgi.url_scheme</td><td style="vertical-align:top;">:</td><td><div>http</div></td></tr><tr><td style="font-weight:bold;vertical-align:top;">wsgi.version</td><td style="vertical-align:top;">:</td><td><div><table><tr><td><div>1</div></td></tr><tr><td><div>0</div></td></tr></table></div></td></tr><tr><td style="font-weight:bold;vertical-align:top;">wsgi_errors</td><td style="vertical-align:top;">:</td><td><div>&lt;open file &#x27;&lt;stderr&gt;&#x27;, mode &#x27;w&#x27; at 0x1030611e0&gt;</div></td></tr><tr><td style="font-weight:bold;vertical-align:top;">wsgi_file_wrapper</td><td style="vertical-align:top;">:</td><td><div>&lt;class wsgiref.util.FileWrapper at 0x104829a10&gt;</div></td></tr><tr><td style="font-weight:bold;vertical-align:top;">wsgi_input</td><td style="vertical-align:top;">:</td><td><div>&lt;socket._fileobject object at 0x109ea3cd0&gt;</div></td></tr><tr><td style="font-weight:bold;vertical-align:top;">wsgi_multiprocess</td><td style="vertical-align:top;">:</td><td><div>False</div></td></tr><tr><td style="font-weight:bold;vertical-align:top;">wsgi_multithread</td><td style="vertical-align:top;">:</td><td><div>True</div></td></tr><tr><td style="font-weight:bold;vertical-align:top;">wsgi_run_once</td><td style="vertical-align:top;">:</td><td><div>False</div></td></tr><tr><td style="font-weight:bold;vertical-align:top;">wsgi_url_scheme</td><td style="vertical-align:top;">:</td><td><div>http</div></td></tr><tr><td style="font-weight:bold;vertical-align:top;">wsgi_version</td><td style="vertical-align:top;">:</td><td><div><table><tr><td><div>1</div></td></tr><tr><td><div>0</div></td></tr></table></div></td></tr></table></div></td></tr><tr><td style="font-weight:bold;vertical-align:top;">extension</td><td style="vertical-align:top;">:</td><td><div>html</div></td></tr><tr><td style="font-weight:bold;vertical-align:top;">folder</td><td style="vertical-align:top;">:</td><td><div>/Users/Steven/Documents/CS183/web2py/applications/final_project/</div></td></tr><tr><td style="font-weight:bold;vertical-align:top;">function</td><td style="vertical-align:top;">:</td><td><div>index</div></td></tr><tr><td style="font-weight:bold;vertical-align:top;">global_settings</td><td style="vertical-align:top;">:</td><td><div><table><tr><td style="font-weight:bold;vertical-align:top;">app_folders</td><td style="vertical-align:top;">:</td><td><div>set([&#x27;/Users/Steven/Documents/CS183/web2py/applications/final_project/&#x27;, &#x27;/Users/Steven/Documents/CS183/web2py/applications/welcome/&#x27;])</div></td></tr><tr><td style="font-weight:bold;vertical-align:top;">applications_parent</td><td style="vertical-align:top;">:</td><td><div>/Users/Steven/Documents/CS183/web2py</div></td></tr><tr><td style="font-weight:bold;vertical-align:top;">cmd_args</td><td style="vertical-align:top;">:</td><td><div><table></table></div></td></tr><tr><td style="font-weight:bold;vertical-align:top;">cmd_options</td><td style="vertical-align:top;">:</td><td><div>&lt;Values at 0x10488d950: {&#x27;verbose&#x27;: False, &#x27;ip&#x27;: &#x27;127.0.0.1&#x27;, &#x27;debuglevel&#x27;: 30, &#x27;with_scheduler&#x27;: False, &#x27;shutdown_timeout&#x27;: 5, &#x27;taskbar&#x27;: False, &#x27;with_coverage&#x27;: False, &#x27;pid_filename&#x27;: &#x27;httpserver.pid&#x27;, &#x27;maxthreads&#x27;: None, &#x27;softcron&#x27;: False, &#x27;server_name&#x27;: &#x27;eduroam-169-233-220-195.ucsc.edu&#x27;, &#x27;bpython&#x27;: False, &#x27;nogui&#x27;: False, &#x27;port&#x27;: 8000, &#x27;print_errors&#x27;: True, &#x27;extcron&#x27;: False, &#x27;runcron&#x27;: False, &#x27;run_system_tests&#x27;: False, &#x27;test&#x27;: None, &#x27;folder&#x27;: &#x27;/Users/Steven/Documents/CS183/web2py&#x27;, &#x27;config&#x27;: &#x27;&#x27;, &#x27;minthreads&#x27;: None, &#x27;shell&#x27;: None, &#x27;run&#x27;: &#x27;&#x27;, &#x27;log_filename&#x27;: &#x27;httpserver.log&#x27;, &#x27;profiler_dir&#x27;: None, &#x27;args&#x27;: [&#x27;&#x27;], &#x27;socket_timeout&#x27;: 5, &#x27;ssl_ca_certificate&#x27;: None, &#x27;scheduler&#x27;: None, &#x27;interfaces&#x27;: None, &#x27;ssl_private_key&#x27;: &#x27;&#x27;, &#x27;gae&#x27;: None, &#x27;password&#x27;: &#x27;******&#x27;, &#x27;request_queue_size&#x27;: 5, &#x27;ssl_certificate&#x27;: &#x27;&#x27;, &#x27;cronjob&#x27;: False, &#x27;numthreads&#x27;: None, &#x27;quiet&#x27;: False, &#x27;import_models&#x27;: False, &#x27;timeout&#x27;: 10, &#x27;plain&#x27;: False, &#x27;nobanner&#x27;: False}&gt;</div></td></tr><tr><td style="font-weight:bold;vertical-align:top;">db_sessions</td><td style="vertical-align:top;">:</td><td><div>set([&#x27;final_project&#x27;])</div></td></tr><tr><td style="font-weight:bold;vertical-align:top;">debugging</td><td style="vertical-align:top;">:</td><td><div>False</div></td></tr><tr><td style="font-weight:bold;vertical-align:top;">gluon_parent</td><td style="vertical-align:top;">:</td><td><div>/Users/Steven/Documents/CS183/web2py</div></td></tr><tr><td style="font-weight:bold;vertical-align:top;">is_jython</td><td style="vertical-align:top;">:</td><td><div>False</div></td></tr><tr><td style="font-weight:bold;vertical-align:top;">is_pypy</td><td style="vertical-align:top;">:</td><td><div>False</div></td></tr><tr><td style="font-weight:bold;vertical-align:top;">is_source</td><td style="vertical-align:top;">:</td><td><div>True</div></td></tr><tr><td style="font-weight:bold;vertical-align:top;">local_hosts</td><td style="vertical-align:top;">:</td><td><div><table><tr><td><div>eduroam-169-233-220-195.ucsc.edu</div></td></tr><tr><td><div>169.233.220.195</div></td></tr><tr><td><div>::1</div></td></tr><tr><td><div>::ffff:127.0.0.1</div></td></tr><tr><td><div>127.0.0.1</div></td></tr></table></div></td></tr><tr><td style="font-weight:bold;vertical-align:top;">web2py_version</td><td style="vertical-align:top;">:</td><td><div>2.14.6-stable+timestamp.2016.05.10.00.21.47</div></td></tr></table></div></td></tr><tr><td style="font-weight:bold;vertical-align:top;">is_https</td><td style="vertical-align:top;">:</td><td><div>False</div></td></tr><tr><td style="font-weight:bold;vertical-align:top;">is_local</td><td style="vertical-align:top;">:</td><td><div>True</div></td></tr><tr><td style="font-weight:bold;vertical-align:top;">is_restful</td><td style="vertical-align:top;">:</td><td><div>False</div></td></tr><tr><td style="font-weight:bold;vertical-align:top;">is_scheduler</td><td style="vertical-align:top;">:</td><td><div>False</div></td></tr><tr><td style="font-weight:bold;vertical-align:top;">is_shell</td><td style="vertical-align:top;">:</td><td><div>False</div></td></tr><tr><td style="font-weight:bold;vertical-align:top;">now</td><td style="vertical-align:top;">:</td><td><div>datetime.datetime(2016, 11, 14, 12, 30, 11, 619068)</div></td></tr><tr><td style="font-weight:bold;vertical-align:top;">raw_args</td><td style="vertical-align:top;">:</td><td><div></div></td></tr><tr><td style="font-weight:bold;vertical-align:top;">raw_extension</td><td style="vertical-align:top;">:</td><td><div>None</div></td></tr><tr><td style="font-weight:bold;vertical-align:top;">url</td><td style="vertical-align:top;">:</td><td><div>/final_project/default/index</div></td></tr><tr><td style="font-weight:bold;vertical-align:top;">utcnow</td><td style="vertical-align:top;">:</td><td><div>datetime.datetime(2016, 11, 14, 20, 30, 11, 619077)</div></td></tr><tr><td style="font-weight:bold;vertical-align:top;">wsgi</td><td style="vertical-align:top;">:</td><td><div>&lt;gluon.main.LazyWSGI object at 0x109f1db10&gt;</div></td></tr></table></div>'
tRp58
sS'frames'
p59
(lp60
(dp61
S'file'
p62
S'/Users/Steven/Documents/CS183/web2py/gluon/restricted.py'
p63
sS'dump'
p64
(dp65
S'environment'
p66
S"{'A': <class 'gluon.html.A'>, 'ANY_OF': <class 'gluon.validators.ANY_OF'>, 'ASSIGNJS': <function ASSIGNJS>, 'AppConfig': <function AppConfig>, 'Auth': <class 'gluon.tools.Auth'>, 'B': <class 'gluon.html.B'>, 'BEAUTIFY': <class 'gluon.html.BEAUTIFY'>, 'BODY': <class 'gluon.html.BODY'>, 'BR': <class 'gluon.html.BR'>, 'BUTTON': <class 'gluon.html.BUTTON'>, ...}"
p67
sS'ccode'
p68
S'<code object <module> at 0x109ef6530, file "/Use.../final_project/views/default/index.html", line 1>'
p69
ssS'lnum'
p70
I227
sS'lines'
p71
(dp72
I224
S'            ccode = code'
p73
sI225
S'        else:'
p74
sI226
S'            ccode = compile2(code, layer)'
p75
sI227
S'        exec ccode in environment'
p76
sI228
S'    except HTTP:'
p77
sI229
S'        raise'
p78
sI230
S'    except RestrictedError:'
p79
sI231
S'        # do not encapsulate (obfuscate) the original RestrictedError'
p80
sI222
S'    try:'
p81
sI223
S'        if isinstance(code, types.CodeType):'
p82
ssS'call'
p83
S'(code=\'response.write(\\\'<link href="http://fonts.googlea..."></script>\\\\n  </body>\\\\n</html>\\\\n\\\', escape=False)\', environment={\'A\': <class \'gluon.html.A\'>, \'ANY_OF\': <class \'gluon.validators.ANY_OF\'>, \'ASSIGNJS\': <function ASSIGNJS>, \'AppConfig\': <function AppConfig>, \'Auth\': <class \'gluon.tools.Auth\'>, \'B\': <class \'gluon.html.B\'>, \'BEAUTIFY\': <class \'gluon.html.BEAUTIFY\'>, \'BODY\': <class \'gluon.html.BODY\'>, \'BR\': <class \'gluon.html.BR\'>, \'BUTTON\': <class \'gluon.html.BUTTON\'>, ...}, layer=\'/Users/Steven/Documents/CS183/web2py/applications/final_project/views/default/index.html\')'
p84
sS'func'
p85
S'restricted'
p86
sa(dp87
g62
S'/Users/Steven/Documents/CS183/web2py/applications/final_project/views/default/index.html'
p88
sg64
(dp89
S'div'
p90
S'undefined'
p91
sS'style'
p92
g91
ssg70
I102
sg71
(dp93
I96
S'else:'
p94
sI97
S'    response.write(\'\\n\\n    <!-- Homepage -->\\n    <h1 class="title">PeerPressure</h1>\\n\\n    <div class="homebtns">\\n        <a href="\', escape=False)'
p95
sI98
S"    response.write(URL('user', ''))"
p96
sI99
S'    response.write(\'" class="btn btn-primary btn-lg raised">Login</a>\\n        <a href="\', escape=False)'
p97
sI100
S"    response.write(URL('user/register', ''))"
p98
sI101
S'    response.write(\'" class="btn btn-default btn-lg raised">Sign Up</a>\\n    </div>\\n\\n    <hr class="hrline">\\n\\n    <div>\\n        <div class="homedesc" style="float: left; width: 50%">\\n            <h3>What is PeerPressure?</h3>\\n            <p>PeerPressure is a website which is based on peer collaboration.  Students are able to create posts\\n            regarding any subject up for discussion such as: homework problems, school events, or study groups.  The possibilities\\n            are endless!  After this other students can respond to the original post, adding additional information, answering a question,\\n            or just providing feedback.  This peer-to-peer communication empowers students to help their fellow classmates and\\n            encourages teamwork and collaboration.</p>\\n        </div>\\n        <div class="homeimg" style="float: left; width: 50%">\\n            <div id="slider">\\n                <div v-for="number in [currentNumber]">\\n                    <transition name="fade">\\n                        <img :src="images[Math.abs(currentNumber) % images.length]" class="imgresize" />\\n                    </transition>\\n                </div>\\n            </div>\\n        </div>\\n    </div>\\n\\n    <div>\\n        <div class="homeimg2" style="float: left; width: 55%">\\n            <i class="fa fa-users fa-5x" aria-hidden="true"></i>\\n            &emsp;&emsp;&emsp;&emsp;&emsp;\\n            <i class="fa fa-plus-circle fa-5x" aria-hidden="true"></i>\\n            &emsp;&emsp;&emsp;&emsp;&emsp;\\n            <i class="fa fa-pencil fa-5x" aria-hidden="true"></i>\\n            &emsp;&emsp;&emsp;&emsp;&emsp;\\n            <i class="fa fa-trash fa-5x" aria-hidden="true"></i>\\n            &emsp;&emsp;&emsp;&emsp;&emsp;\\n            <i class="fa fa-reply fa-5x" aria-hidden="true"></i>\\n        </div>\\n        <div class="homedesc" style="float: right; width: 45%">\\n            <h3>Features</h3>\\n            <ul>\\n                <li>Unique user accounts - Individual accounts for each student</li>\\n                <li>Create posts - Topics are unlimited</li>\\n                <li>Edit posts - Change your question or your responses</li>\\n                <li>Delete posts - Get rid of invalid information</li>\\n                <li>Reply to posts - Collaboration between students</li>\\n                <li>Posts show creator and when it was created</li>\\n                <li>Ask questions and get answers 24/7 - Not just in the classroom</li>\\n            </ul>\\n    </div>\\n        <img src="\', escape=False)'
p99
sI102
S"    response.write(URL('static', 'screenshot.png', args=screenshot))"
p100
sI103
S'    response.write(\'" />\\n    <div>\\n\\n    </div>\\n\', escape=False)'
p101
sI104
S'    pass'
p102
sI105
S'response.write(\'\\n</div>\\n\\n<script src="\', escape=False)'
p103
sI106
S"response.write(URL('static', 'js/default_index.js'))"
p104
sI107
S'response.write(\'"></script>\\n    <script>$( document ).ready(function() {\\n        APP.img.startRotation();\\n    });</script>\\n\', escape=False)'
p105
sI108
S"response.write('\\n        ', escape=False)"
p106
sI109
S"response.write('\\n      </div>\\n\\n      ', escape=False)"
p107
sI110
S'if right_sidebar_enabled:'
p108
sI111
S'    response.write(\'\\n        <div class="col-md-3">\\n            \', escape=False)'
p109
sI112
S"    response.write('\\n            <h3>Right Sidebar</h3>\\n            <p></p>\\n            ', escape=False)"
p110
sI93
S'response.write(\'\\n\\n<div class="main_content">\\n\', escape=False)'
p111
sI94
S'if auth.user_id:'
p112
sI95
S'    response.write(\'\\n    <div id="vue-div" class="display:none">\\n\\n        <h2>Posts</h2>\\n\\n        <div class="add-new-post">\\n            <button v-if="!is_adding_post" class="btn btn-primary btn-lg" v-on:click="add_post_button()" v-bind:class="{\\\'disabled\\\': !logged_in}"><i class="fa fa-plus"></i> Add Post</button>\\n        </div>\\n\\n        <div v-if="is_adding_post" id="add_post_div"><br>\\n            <form action="#" v-on:submit.prevent="add_post" class="form-horizontal" enctype="multipart/form-data" method="post">\\n                <div class="form-group" id="add-new-post">\\n                    <textarea class="form-control" v-model="form_content"></textarea><br>\\n                    <input class="btn btn-primary btn-lg" id="add_post_submit" type="submit" value="Post"/>\\n                    <input class="btn btn-default btn-lg" id="add_post_cancel" type="button" value="Cancel" v-on:click="add_post_button()"/>\\n                </div>\\n            </form>\\n        </div>\\n\\n        <div v-for="post in posts" class="post_list">\\n            <div class="post">\\n                <div v-if="!(edit_post_id == post.id)">\\n                    <h3>${post.post_content}</h3>\\n                    <br>Author: <i>${post.user_email}</i>\\n                    <br>Date: <i>${post.created_on}</i>\\n                    <div v-if="post.created_on != post.updated_on">\\n                        Updated: <i>${post.updated_on}</i>\\n                    </div>\\n                    <div v-if="logged_in" class="icons">\\n                        <i class="fa fa-pencil" v-if="post.op" v-on:click="update_post(post.id, post.post_content)"></i>\\n                        <i class="fa fa-trash-o" v-if="post.op" v-on:click="delete_post(post.id)"></i>\\n                    </div>\\n                    <div v-if="logged_in" class="icons">\\n                        <i class="fa fa-reply" v-if="!post.op" v-on:click="reply_post_button(post.id)"></i>\\n                    </div>\\n                    <div v-if="logged_in">\\n                        <div v-if="is_replying_post" id="reply_post_div"><br>\\n                            <form action="#" v-on:submit.prevent="reply_post" class="form-horizontal" enctype="multipart/form-data" method="post" v-if="reply_post_id == post.id">\\n                                <div class="form-group" id="reply-new-post">\\n                                    <textarea class="form-control" v-model="form_reply_content"></textarea><br>\\n                                    <div class="text_btns">\\n                                        <input class="btn btn-primary btn-lg" id="reply_post_submit" type="submit" value="Reply"/>\\n                                        <input class="btn btn-default btn-lg" id="reply_post_cancel" type="button" value="Cancel" v-on:click="reply_post_button()" v-on:click="reply_post_id = null" />\\n                                    </div>\\n                                </div>\\n                            </form>\\n                        </div>\\n                    </div>\\n                </div>\\n                <form action="#" v-on:submit.prevent="edit_post" class="form-horizontal" enctype="multipart/form-data" method="post" v-if="edit_post_id == post.id">\\n                    <div class="form-group">\\n                        <textarea class="form-control" v-model="form_edit_content"></textarea><br>\\n                        <div class="text_btns">\\n                            <input class="btn btn-primary btn-lg" id="edit_post_submit" type="submit" value="Edit"/>\\n                            <input class="btn btn-default btn-lg" id="edit_post_cancel" type="button" value="Cancel" v-on:click="edit_post_id = null"/>\\n                        </div>\\n                    </div>\\n                </form>\\n            </div>\\n            <div v-if="post.replies" class="rply_post">\\n                <h4>${reply.post_content}</h4>\\n            </div>\\n        </div>\\n\\n        <div v-if="has_more" class="show_more">\\n            <button class="btn btn-default btn-lg" id="load-more" v-on:click="get_more()">Load more</button>\\n        </div>\\n\\n    </div>\\n\\n\', escape=False)'
p113
ssg83
S'()'
p114
sg85
S'<module>'
p115
sasS'pyver'
p116
S'Python 2.7.10: /usr/bin/python (prefix: /System/Library/Frameworks/Python.framework/Versions/2.7)'
p117
sS'session'
p118
g57
(S's\x9c\x00\x00\x00<div><table><tr><td style="font-weight:bold;vertical-align:top;">flash</td><td style="vertical-align:top;">:</td><td><div>None</div></td></tr></table></div>'
tRp119
sS'etype'
p120
S"<type 'exceptions.NameError'>"
p121
sS'date'
p122
S'Mon Nov 14 12:30:11 2016'
p123
sS'response'
p124
g57
(S'sp\x1c\x00\x00<div><table><tr><td style="font-weight:bold;vertical-align:top;">body</td><td style="vertical-align:top;">:</td><td><div>&lt;cStringIO.StringO object at 0x109f1cf48&gt;</div></td></tr><tr><td style="font-weight:bold;vertical-align:top;">cookies</td><td style="vertical-align:top;">:</td><td><div><table><tr><td style="font-weight:bold;vertical-align:top;">session_id_final_project</td><td style="vertical-align:top;">:</td><td><div>63:b4cbdcb6-e7a5-4bd3-b503-8aa8f5220524<table><tr><td style="font-weight:bold;vertical-align:top;">comment</td><td style="vertical-align:top;">:</td><td><div></div></td></tr><tr><td style="font-weight:bold;vertical-align:top;">domain</td><td style="vertical-align:top;">:</td><td><div></div></td></tr><tr><td style="font-weight:bold;vertical-align:top;">expires</td><td style="vertical-align:top;">:</td><td><div></div></td></tr><tr><td style="font-weight:bold;vertical-align:top;">httponly</td><td style="vertical-align:top;">:</td><td><div></div></td></tr><tr><td style="font-weight:bold;vertical-align:top;">max-age</td><td style="vertical-align:top;">:</td><td><div></div></td></tr><tr><td style="font-weight:bold;vertical-align:top;">path</td><td style="vertical-align:top;">:</td><td><div>/</div></td></tr><tr><td style="font-weight:bold;vertical-align:top;">secure</td><td style="vertical-align:top;">:</td><td><div></div></td></tr><tr><td style="font-weight:bold;vertical-align:top;">version</td><td style="vertical-align:top;">:</td><td><div></div></td></tr></table></div></td></tr></table></div></td></tr><tr><td style="font-weight:bold;vertical-align:top;">delimiters</td><td style="vertical-align:top;">:</td><td><div><table><tr><td><div>{{</div></td></tr><tr><td><div>}}</div></td></tr></table></div></td></tr><tr><td style="font-weight:bold;vertical-align:top;">files</td><td style="vertical-align:top;">:</td><td><div><table><tr><td><div>/final_project/static/js/jquery.js</div></td></tr><tr><td><div>/final_project/static/css/calendar.css</div></td></tr><tr><td><div>/final_project/static/js/calendar.js</div></td></tr><tr><td><div>/final_project/static/js/web2py.js</div></td></tr></table></div></td></tr><tr><td style="font-weight:bold;vertical-align:top;">flash</td><td style="vertical-align:top;">:</td><td><div></div></td></tr><tr><td style="font-weight:bold;vertical-align:top;">form_label_separator</td><td style="vertical-align:top;">:</td><td><div></div></td></tr><tr><td style="font-weight:bold;vertical-align:top;">formstyle</td><td style="vertical-align:top;">:</td><td><div>bootstrap3_inline</div></td></tr><tr><td style="font-weight:bold;vertical-align:top;">generic_patterns</td><td style="vertical-align:top;">:</td><td><div><table><tr><td><div>*</div></td></tr></table></div></td></tr><tr><td style="font-weight:bold;vertical-align:top;">google_analytics_id</td><td style="vertical-align:top;">:</td><td><div>None</div></td></tr><tr><td style="font-weight:bold;vertical-align:top;">headers</td><td style="vertical-align:top;">:</td><td><div><table><tr><td style="font-weight:bold;vertical-align:top;">X-Powered-By</td><td style="vertical-align:top;">:</td><td><div>web2py</div></td></tr></table></div></td></tr><tr><td style="font-weight:bold;vertical-align:top;">menu</td><td style="vertical-align:top;">:</td><td><div><table></table></div></td></tr><tr><td style="font-weight:bold;vertical-align:top;">meta</td><td style="vertical-align:top;">:</td><td><div><table><tr><td style="font-weight:bold;vertical-align:top;">author</td><td style="vertical-align:top;">:</td><td><div>Your Name &lt;you@example.com&gt;</div></td></tr><tr><td style="font-weight:bold;vertical-align:top;">description</td><td style="vertical-align:top;">:</td><td><div>a cool new app</div></td></tr><tr><td style="font-weight:bold;vertical-align:top;">generator</td><td style="vertical-align:top;">:</td><td><div>Web2py Web Framework</div></td></tr><tr><td style="font-weight:bold;vertical-align:top;">keywords</td><td style="vertical-align:top;">:</td><td><div><table><tr><td><div>web2py</div></td></tr><tr><td><div>python</div></td></tr><tr><td><div>framework</div></td></tr></table></div></td></tr></table></div></td></tr><tr><td style="font-weight:bold;vertical-align:top;">models_to_run</td><td style="vertical-align:top;">:</td><td><div><table><tr><td><div>^\\w+\\.py$</div></td></tr><tr><td><div>^default/\\w+\\.py$</div></td></tr><tr><td><div>^default/index/\\w+\\.py$</div></td></tr></table></div></td></tr><tr><td style="font-weight:bold;vertical-align:top;">postprocessing</td><td style="vertical-align:top;">:</td><td><div><table></table></div></td></tr><tr><td style="font-weight:bold;vertical-align:top;">session_client</td><td style="vertical-align:top;">:</td><td><div>127.0.0.1</div></td></tr><tr><td style="font-weight:bold;vertical-align:top;">session_cookie_compression_level</td><td style="vertical-align:top;">:</td><td><div>None</div></td></tr><tr><td style="font-weight:bold;vertical-align:top;">session_cookie_expires</td><td style="vertical-align:top;">:</td><td><div>None</div></td></tr><tr><td style="font-weight:bold;vertical-align:top;">session_data_name</td><td style="vertical-align:top;">:</td><td><div>session_data_final_project</div></td></tr><tr><td style="font-weight:bold;vertical-align:top;">session_db_record_id</td><td style="vertical-align:top;">:</td><td><div>63L</div></td></tr><tr><td style="font-weight:bold;vertical-align:top;">session_db_table</td><td style="vertical-align:top;">:</td><td><div>&lt;Table web2py_session_final_project (id, locked, client_ip, created_datetime, modified_datetime, unique_key, session_data)&gt;</div></td></tr><tr><td style="font-weight:bold;vertical-align:top;">session_db_unique_key</td><td style="vertical-align:top;">:</td><td><div>b4cbdcb6-e7a5-4bd3-b503-8aa8f5220524</div></td></tr><tr><td style="font-weight:bold;vertical-align:top;">session_hash</td><td style="vertical-align:top;">:</td><td><div>bcaa95ad4230fb34c9b383e753fbc2ad</div></td></tr><tr><td style="font-weight:bold;vertical-align:top;">session_id</td><td style="vertical-align:top;">:</td><td><div>63:b4cbdcb6-e7a5-4bd3-b503-8aa8f5220524</div></td></tr><tr><td style="font-weight:bold;vertical-align:top;">session_id_name</td><td style="vertical-align:top;">:</td><td><div>session_id_final_project</div></td></tr><tr><td style="font-weight:bold;vertical-align:top;">session_masterapp</td><td style="vertical-align:top;">:</td><td><div>final_project</div></td></tr><tr><td style="font-weight:bold;vertical-align:top;">session_new</td><td style="vertical-align:top;">:</td><td><div>False</div></td></tr><tr><td style="font-weight:bold;vertical-align:top;">session_storage_type</td><td style="vertical-align:top;">:</td><td><div>db</div></td></tr><tr><td style="font-weight:bold;vertical-align:top;">status</td><td style="vertical-align:top;">:</td><td><div>200</div></td></tr><tr><td style="font-weight:bold;vertical-align:top;">subtitle</td><td style="vertical-align:top;">:</td><td><div></div></td></tr><tr><td style="font-weight:bold;vertical-align:top;">title</td><td style="vertical-align:top;">:</td><td><div>Final Project</div></td></tr><tr><td style="font-weight:bold;vertical-align:top;">view</td><td style="vertical-align:top;">:</td><td><div>default/index.html</div></td></tr></table></div>'
tRp125
sS'locals'
p126
(dp127
S'Service'
p128
S"<class 'gluon.tools.Service'>"
p129
sS'FORMAT'
p130
S"'%(asctime)s %(levelname)s %(process)s %(thread)s %(funcName)s():%(lineno)d %(message)s'"
p131
sS'OBJECT'
p132
S"<class 'gluon.html.OBJECT'>"
p133
sS'SQLDB'
p134
S"<class 'pydal.base.DAL'>"
p135
sg118
S"<Storage {'flash': None}>"
p136
sS'LINK'
p137
S"<class 'gluon.html.LINK'>"
p138
sS'BR'
p139
S"<class 'gluon.html.BR'>"
p140
sS'local_import'
p141
S'<function <lambda>>'
p142
sS'OPTGROUP'
p143
S"<class 'gluon.html.OPTGROUP'>"
p144
sS'__package__'
p145
S'None'
p146
sS'PRE'
p147
S"<class 'gluon.html.PRE'>"
p148
sS'IS_INT_IN_RANGE'
p149
S"<class 'gluon.validators.IS_INT_IN_RANGE'>"
p150
sS'icon_your_review'
p151
S'<gluon.html.I object>'
p152
sS'left_sidebar_enabled'
p153
S'False'
p154
sS'IS_LOWER'
p155
S"<class 'gluon.validators.IS_LOWER'>"
p156
sS'IS_STRONG'
p157
S"<class 'gluon.validators.IS_STRONG'>"
p158
sS'cache'
p159
S'<gluon.cache.Cache object>'
p160
sS'IS_IN_DB'
p161
S"<class 'gluon.validators.IS_IN_DB'>"
p162
sS'TAG'
p163
S'<gluon.html.__TAG__ object>'
p164
sS'SQLField'
p165
S"<class 'pydal.objects.Field'>"
p166
sS'mail'
p167
S'<gluon.tools.Mail object>'
p168
sS'logger'
p169
S'<logging.Logger object>'
p170
sS'icon_reviews'
p171
S'<gluon.html.I object>'
p172
sS'BODY'
p173
S"<class 'gluon.html.BODY'>"
p174
sS'IS_DATE_IN_RANGE'
p175
S"<class 'gluon.validators.IS_DATE_IN_RANGE'>"
p176
sS'icon_details'
p177
S'<gluon.html.I object>'
p178
sS'IFRAME'
p179
S"<class 'gluon.html.IFRAME'>"
p180
sS'URL'
p181
S'<function URL>'
p182
sS'__file__'
p183
S"'/Users/Steven/Documents/CS183/web2py/applications/final_project/views/default/index.html'"
p184
sS'db'
p185
S'<DAL uri="sqlite://storage.sqlite">'
p186
sS'auth'
p187
S'<gluon.tools.Auth object>'
p188
sS'P'
S"<class 'gluon.html.P'>"
p189
sS'OL'
p190
S"<class 'gluon.html.OL'>"
p191
sS'TFOOT'
p192
S"<class 'gluon.html.TFOOT'>"
p193
sS'icon_hide'
p194
S'<gluon.html.I object>'
p195
sS'XHTML'
p196
S"<class 'gluon.html.XHTML'>"
p197
sS'datetime'
p198
S"<module 'datetime' from '/System/Library/Framewo...sions/2.7/lib/python2.7/lib-dynload/datetime.so'>"
p199
sS'ON'
p200
S'True'
p201
sS'icon_add'
p202
S'<gluon.html.I object>'
p203
sS'TEXTAREA'
p204
S"<class 'gluon.html.TEXTAREA'>"
p205
sS'MENU'
p206
S"<class 'gluon.html.MENU'>"
p207
sS'IS_IPADDRESS'
p208
S"<class 'gluon.validators.IS_IPADDRESS'>"
p209
sS'IS_IMAGE'
p210
S"<class 'gluon.validators.IS_IMAGE'>"
p211
sS'EM'
p212
S"<class 'gluon.html.EM'>"
p213
sS'CODE'
p214
S"<class 'gluon.html.CODE'>"
p215
sS'HTTP'
p216
S"<class 'gluon.http.HTTP'>"
p217
sS'HR'
p218
S"<class 'gluon.html.HR'>"
p219
sS'IS_DATETIME'
p220
S"<class 'gluon.validators.IS_DATETIME'>"
p221
sS'STYLE'
p222
S"<class 'gluon.html.STYLE'>"
p223
sS'LABEL'
p224
S"<class 'gluon.html.LABEL'>"
p225
sS'CLEANUP'
p226
S"<class 'gluon.validators.CLEANUP'>"
p227
sS'plugins'
p228
S'<gluon.tools.PluginManager object>'
p229
sS'SELECT'
p230
S"<class 'gluon.html.SELECT'>"
p231
sS'CENTER'
p232
S"<class 'gluon.html.CENTER'>"
p233
sS'Auth'
p234
S"<class 'gluon.tools.Auth'>"
p235
sS'DEVELOPMENT_MENU'
p236
g201
sS'__builtins__'
p237
S"{'ArithmeticError': <type 'exceptions.ArithmeticError'>, 'AssertionError': <type 'exceptions.AssertionError'>, 'AttributeError': <type 'exceptions.AttributeError'>, 'BaseException': <type 'exceptions.BaseException'>, 'BufferError': <type 'exceptions.BufferError'>, 'BytesWarning': <type 'exceptions.BytesWarning'>, 'DeprecationWarning': <type 'exceptions.DeprecationWarning'>, 'EOFError': <type 'exceptions.EOFError'>, 'Ellipsis': Ellipsis, 'EnvironmentError': <type 'exceptions.EnvironmentError'>, ...}"
p238
sS'HTML'
p239
S"<class 'gluon.html.HTML'>"
p240
sS'SQLFORM'
p241
S"<class 'gluon.sqlhtml.SQLFORM'>"
p242
sS'icon_all_paper'
p243
S'<gluon.html.I object>'
p244
sS'icon_primary_paper'
p245
S'<gluon.html.I object>'
p246
sS'LOAD'
p247
S'<function LOAD>'
p248
sS'redirect'
p249
S'<function redirect>'
p250
sS'FIELDSET'
p251
S"<class 'gluon.html.FIELDSET'>"
p252
sS'IS_EQUAL_TO'
p253
S"<class 'gluon.validators.IS_EQUAL_TO'>"
p254
sS'embed64'
p255
S'<function embed64>'
p256
sS'IS_LIST_OF'
p257
S"<class 'gluon.validators.IS_LIST_OF'>"
p258
sS'__name__'
p259
S"'__restricted__'"
p260
sS'EMBED'
p261
S"<class 'gluon.html.EMBED'>"
p262
sS'_'
S'<function _>'
p263
sS'logging'
p264
S"<module 'logging' from '/System/Library/Framewor...Versions/2.7/lib/python2.7/logging/__init__.pyc'>"
p265
sS'myconf'
p266
S"{'forms': {'formstyle': 'bootstrap3_inline', 'se...': {'names': 'localhost:*, 127.0.0.1:*, *:*, *'}}"
p267
sS'H2'
p268
S"<class 'gluon.html.H2'>"
p269
sS'H3'
p270
S"<class 'gluon.html.H3'>"
p271
sS'AppConfig'
p272
S'<function AppConfig>'
p273
sS'H1'
p274
S"<class 'gluon.html.H1'>"
p275
sS'H6'
p276
S"<class 'gluon.html.H6'>"
p277
sS'H4'
p278
S"<class 'gluon.html.H4'>"
p279
sS'H5'
p280
S"<class 'gluon.html.H5'>"
p281
sS'UL'
p282
S"<class 'gluon.html.UL'>"
p283
sS'IS_UPPER'
p284
S"<class 'gluon.validators.IS_UPPER'>"
p285
sS'xmlescape'
p286
S'<function xmlescape>'
p287
sS'IS_TIME'
p288
S"<class 'gluon.validators.IS_TIME'>"
p289
sS'OPTION'
p290
S"<class 'gluon.html.OPTION'>"
p291
sS'TITLE'
p292
S"<class 'gluon.html.TITLE'>"
p293
sS'icon_view'
p294
S'<gluon.html.I object>'
p295
sS'CRYPT'
p296
S"<class 'gluon.validators.CRYPT'>"
p297
sS'IS_EMPTY_OR'
p298
S"<class 'gluon.validators.IS_EMPTY_OR'>"
p299
sS'MARKMIN'
p300
S"<class 'gluon.html.MARKMIN'>"
p301
sS'INPUT'
p302
S"<class 'gluon.html.INPUT'>"
p303
sS'STRONG'
p304
S"<class 'gluon.html.STRONG'>"
p305
sS'COL'
p306
S"<class 'gluon.html.COL'>"
p307
sS'mc1'
p308
S"'col-md-9'"
p309
sS'mc0'
p310
S"'col-md-12'"
p311
sS'service'
p312
S'<gluon.tools.Service object>'
p313
sS'SCRIPT'
p314
S"<class 'gluon.html.SCRIPT'>"
p315
sS'TABLE'
p316
S"<class 'gluon.html.TABLE'>"
p317
sS'IS_IPV4'
p318
S"<class 'gluon.validators.IS_IPV4'>"
p319
sS'IS_LENGTH'
p320
S"<class 'gluon.validators.IS_LENGTH'>"
p321
sS'IS_IPV6'
p322
S"<class 'gluon.validators.IS_IPV6'>"
p323
sS'XML'
p324
S"<class 'gluon.html.XML'>"
p325
sS'B'
S"<class 'gluon.html.B'>"
p326
sS'IMG'
p327
S"<class 'gluon.html.IMG'>"
p328
sS'SQLTABLE'
p329
S"<class 'gluon.sqlhtml.SQLTABLE'>"
p330
sS'IS_MATCH'
p331
S"<class 'gluon.validators.IS_MATCH'>"
p332
sS'IS_ALPHANUMERIC'
p333
S"<class 'gluon.validators.IS_ALPHANUMERIC'>"
p334
sS'get_user_email'
p335
S'<function get_user_email>'
p336
sS'icon_empty'
p337
S'<gluon.html.I object>'
p338
sS'SPAN'
p339
S"<class 'gluon.html.SPAN'>"
p340
sS'IS_JSON'
p341
S"<class 'gluon.validators.IS_JSON'>"
p342
sS'icon_spinner_still'
p343
S'<gluon.html.I object>'
p344
sS'IS_SLUG'
p345
S"<class 'gluon.validators.IS_SLUG'>"
p346
sS'BEAUTIFY'
p347
S"<class 'gluon.html.BEAUTIFY'>"
p348
sS'META'
p349
S"<class 'gluon.html.META'>"
p350
sS'icon_delete'
p351
S'<gluon.html.I object>'
p352
sS'BUTTON'
p353
S"<class 'gluon.html.BUTTON'>"
p354
sS'IS_DATE'
p355
S"<class 'gluon.validators.IS_DATE'>"
p356
sS'IS_EMAIL'
p357
S"<class 'gluon.validators.IS_EMAIL'>"
p358
sS'middle_column'
p359
S"'col-md-12'"
p360
sS'IS_NOT_EMPTY'
p361
S"<class 'gluon.validators.IS_NOT_EMPTY'>"
p362
sS'IS_FLOAT_IN_RANGE'
p363
S"<class 'gluon.validators.IS_FLOAT_IN_RANGE'>"
p364
sS'TBODY'
p365
S"<class 'gluon.html.TBODY'>"
p366
sS'CAT'
p367
S"<class 'gluon.html.CAT'>"
p368
sS'icon_pick_review'
p369
S'<gluon.html.SPAN object>'
p370
sS'Field'
p371
S"<class 'pydal.objects.Field'>"
p372
sS'mc2'
p373
S"'col-md-6'"
p374
sS'IS_LIST_OF_EMAILS'
p375
S"<class 'gluon.validators.IS_LIST_OF_EMAILS'>"
p376
sS'DIV'
p377
S"<class 'gluon.html.DIV'>"
p378
sS'LEGEND'
p379
S"<class 'gluon.html.LEGEND'>"
p380
sS'COLGROUP'
p381
S"<class 'gluon.html.COLGROUP'>"
p382
sS'DAL'
p383
S"<class 'pydal.base.DAL'>"
p384
sS'ASSIGNJS'
p385
S'<function ASSIGNJS>'
p386
sS'icon_edit'
p387
S'<gluon.html.I object>'
p388
sS'TR'
p389
S"<class 'gluon.html.TR'>"
p390
sS'LI'
p391
S"<class 'gluon.html.LI'>"
p392
sS'right_sidebar_enabled'
p393
g154
sS'TH'
p394
S"<class 'gluon.html.TH'>"
p395
sS'TD'
p396
S"<class 'gluon.html.TD'>"
p397
sS'PluginManager'
p398
S"<class 'gluon.tools.PluginManager'>"
p399
sS'IS_URL'
p400
S"<class 'gluon.validators.IS_URL'>"
p401
sS'A'
S"<class 'gluon.html.A'>"
p402
sS'HEAD'
p403
S"<class 'gluon.html.HEAD'>"
p404
sS'icon_cancel'
p405
S'<gluon.html.I object>'
p406
sS'IS_DATETIME_IN_RANGE'
p407
S"<class 'gluon.validators.IS_DATETIME_IN_RANGE'>"
p408
sS'FORM'
p409
S"<class 'gluon.html.FORM'>"
p410
sS'I'
S"<class 'gluon.html.I'>"
p411
sS'sys'
p412
S"<module 'sys' (built-in)>"
p413
sS'IS_NOT_IN_DB'
p414
S"<class 'gluon.validators.IS_NOT_IN_DB'>"
p415
sg124
S"<Storage {'body': <cStringIO.StringO object at 0...y, session_data)>, 'view': 'default/index.html'}>"
p416
sS'THEAD'
p417
S"<class 'gluon.html.THEAD'>"
p418
sS'ANY_OF'
p419
S"<class 'gluon.validators.ANY_OF'>"
p420
sS'IS_NULL_OR'
p421
S"<class 'gluon.validators.IS_EMPTY_OR'>"
p422
sg56
S"<Storage {'_vars': <Storage {}>, 'function': 'in...ments/CS183/web2py/applications/final_project/'}>"
p423
sS'IS_EXPR'
p424
S"<class 'gluon.validators.IS_EXPR'>"
p425
sS'T'
S'<gluon.languages.translator object>'
p426
sS'IS_IN_SET'
p427
S"<class 'gluon.validators.IS_IN_SET'>"
p428
sS'IS_UPLOAD_FILENAME'
p429
S"<class 'gluon.validators.IS_UPLOAD_FILENAME'>"
p430
sS'TT'
p431
S"<class 'gluon.html.TT'>"
p432
sS'IS_DECIMAL_IN_RANGE'
p433
S"<class 'gluon.validators.IS_DECIMAL_IN_RANGE'>"
p434
sssS'traceback'
p435
S'Traceback (most recent call last):\n  File "/Users/Steven/Documents/CS183/web2py/gluon/restricted.py", line 227, in restricted\n    exec ccode in environment\n  File "/Users/Steven/Documents/CS183/web2py/applications/final_project/views/default/index.html", line 102, in <module>\n    <div class="homedesc" style="float: left; width: 50%">\nNameError: name \'screenshot\' is not defined\n'
p436
s.