(dp1
S'output'
p2
S"<type 'exceptions.NameError'> name 'DEVELOPMENT_MENU' is not defined"
p3
sS'layer'
p4
S'/Users/Steven/Documents/CS183/web2py/applications/final_project/models/menu.py'
p5
sS'code'
p6
S'# -*- coding: utf-8 -*-\n# this file is released under public domain and you can use without limitations\n\n# ----------------------------------------------------------------------------------------------------------------------\n# Customize your APP title, subtitle and menus here\n# ----------------------------------------------------------------------------------------------------------------------\n\n# response.logo = A(B(\'web\', SPAN(2), \'py\'), XML(\'&trade;&nbsp;\'),\n#                   _class="navbar-brand", _href="http://www.web2py.com/",\n#                   _id="web2py-logo")\nresponse.title = request.application.replace(\'_\', \' \').title()\nresponse.subtitle = \'\'\n\n# ----------------------------------------------------------------------------------------------------------------------\n# read more at http://dev.w3.org/html5/markup/meta.name.html\n# ----------------------------------------------------------------------------------------------------------------------\nresponse.meta.author = myconf.get(\'app.author\')\nresponse.meta.description = myconf.get(\'app.description\')\nresponse.meta.keywords = myconf.get(\'app.keywords\')\nresponse.meta.generator = myconf.get(\'app.generator\')\n\n# ----------------------------------------------------------------------------------------------------------------------\n# your http://google.com/analytics id\n# ----------------------------------------------------------------------------------------------------------------------\nresponse.google_analytics_id = None\n\n# ----------------------------------------------------------------------------------------------------------------------\n# this is the main application menu add/remove items as required\n# ----------------------------------------------------------------------------------------------------------------------\n\n# response.menu = [\n#     (T(\'Home\'), False, URL(\'default\', \'index\'), [])\n# ]\n#\n# DEVELOPMENT_MENU = True\n\n\n# ----------------------------------------------------------------------------------------------------------------------\n# provide shortcuts for development. remove in production\n# ----------------------------------------------------------------------------------------------------------------------\n\ndef _():\n    # ------------------------------------------------------------------------------------------------------------------\n    # shortcuts\n    # ------------------------------------------------------------------------------------------------------------------\n    app = request.application\n    ctr = request.controller\n    # ------------------------------------------------------------------------------------------------------------------\n    # useful links to internal and external resources\n    # ------------------------------------------------------------------------------------------------------------------\n    # response.menu += [\n    #     (T(\'My Sites\'), False, URL(\'admin\', \'default\', \'site\')),\n    #     (T(\'This App\'), False, \'#\', [\n    #         (T(\'Design\'), False, URL(\'admin\', \'default\', \'design/%s\' % app)),\n    #         LI(_class="divider"),\n    #         (T(\'Controller\'), False,\n    #          URL(\n    #              \'admin\', \'default\', \'edit/%s/controllers/%s.py\' % (app, ctr))),\n    #         (T(\'View\'), False,\n    #          URL(\n    #              \'admin\', \'default\', \'edit/%s/views/%s\' % (app, response.view))),\n    #         (T(\'DB Model\'), False,\n    #          URL(\n    #              \'admin\', \'default\', \'edit/%s/models/db.py\' % app)),\n    #         (T(\'Menu Model\'), False,\n    #          URL(\n    #              \'admin\', \'default\', \'edit/%s/models/menu.py\' % app)),\n    #         (T(\'Config.ini\'), False,\n    #          URL(\n    #              \'admin\', \'default\', \'edit/%s/private/appconfig.ini\' % app)),\n    #         (T(\'Layout\'), False,\n    #          URL(\n    #              \'admin\', \'default\', \'edit/%s/views/layout.html\' % app)),\n    #         (T(\'Stylesheet\'), False,\n    #          URL(\n    #              \'admin\', \'default\', \'edit/%s/static/css/web2py-bootstrap3.css\' % app)),\n    #         (T(\'Database\'), False, URL(app, \'appadmin\', \'index\')),\n    #         (T(\'Errors\'), False, URL(\n    #             \'admin\', \'default\', \'errors/\' + app)),\n    #         (T(\'About\'), False, URL(\n    #             \'admin\', \'default\', \'about/\' + app)),\n    #     ]),\n    #     (\'web2py.com\', False, \'#\', [\n    #         (T(\'Download\'), False,\n    #          \'http://www.web2py.com/examples/default/download\'),\n    #         (T(\'Support\'), False,\n    #          \'http://www.web2py.com/examples/default/support\'),\n    #         (T(\'Demo\'), False, \'http://web2py.com/demo_admin\'),\n    #         (T(\'Quick Examples\'), False,\n    #          \'http://web2py.com/examples/default/examples\'),\n    #         (T(\'FAQ\'), False, \'http://web2py.com/AlterEgo\'),\n    #         (T(\'Videos\'), False,\n    #          \'http://www.web2py.com/examples/default/videos/\'),\n    #         (T(\'Free Applications\'),\n    #          False, \'http://web2py.com/appliances\'),\n    #         (T(\'Plugins\'), False, \'http://web2py.com/plugins\'),\n    #         (T(\'Recipes\'), False, \'http://web2pyslices.com/\'),\n    #     ]),\n    #     (T(\'Documentation\'), False, \'#\', [\n    #         (T(\'Online book\'), False, \'http://www.web2py.com/book\'),\n    #         LI(_class="divider"),\n    #         (T(\'Preface\'), False,\n    #          \'http://www.web2py.com/book/default/chapter/00\'),\n    #         (T(\'Introduction\'), False,\n    #          \'http://www.web2py.com/book/default/chapter/01\'),\n    #         (T(\'Python\'), False,\n    #          \'http://www.web2py.com/book/default/chapter/02\'),\n    #         (T(\'Overview\'), False,\n    #          \'http://www.web2py.com/book/default/chapter/03\'),\n    #         (T(\'The Core\'), False,\n    #          \'http://www.web2py.com/book/default/chapter/04\'),\n    #         (T(\'The Views\'), False,\n    #          \'http://www.web2py.com/book/default/chapter/05\'),\n    #         (T(\'Database\'), False,\n    #          \'http://www.web2py.com/book/default/chapter/06\'),\n    #         (T(\'Forms and Validators\'), False,\n    #          \'http://www.web2py.com/book/default/chapter/07\'),\n    #         (T(\'Email and SMS\'), False,\n    #          \'http://www.web2py.com/book/default/chapter/08\'),\n    #         (T(\'Access Control\'), False,\n    #          \'http://www.web2py.com/book/default/chapter/09\'),\n    #         (T(\'Services\'), False,\n    #          \'http://www.web2py.com/book/default/chapter/10\'),\n    #         (T(\'Ajax Recipes\'), False,\n    #          \'http://www.web2py.com/book/default/chapter/11\'),\n    #         (T(\'Components and Plugins\'), False,\n    #          \'http://www.web2py.com/book/default/chapter/12\'),\n    #         (T(\'Deployment Recipes\'), False,\n    #          \'http://www.web2py.com/book/default/chapter/13\'),\n    #         (T(\'Other Recipes\'), False,\n    #          \'http://www.web2py.com/book/default/chapter/14\'),\n    #         (T(\'Helping web2py\'), False,\n    #          \'http://www.web2py.com/book/default/chapter/15\'),\n    #         (T("Buy web2py\'s book"), False,\n    #          \'http://stores.lulu.com/web2py\'),\n    #     ]),\n    #     (T(\'Community\'), False, None, [\n    #         (T(\'Groups\'), False,\n    #          \'http://www.web2py.com/examples/default/usergroups\'),\n    #         (T(\'Twitter\'), False, \'http://twitter.com/web2py\'),\n    #         (T(\'Live Chat\'), False,\n    #          \'http://webchat.freenode.net/?channels=web2py\'),\n    #     ]),\n    # ]\n\n\nif DEVELOPMENT_MENU:\n    _()\n\nif "auth" in locals():\n    auth.wikimenu()\n'
p7
sS'snapshot'
p8
(dp9
S'exception'
p10
(dp11
S'__hash__'
p12
S"<method-wrapper '__hash__' of exceptions.NameError object>"
p13
sS'__setattr__'
p14
S"<method-wrapper '__setattr__' of exceptions.NameError object>"
p15
sS'__reduce_ex__'
p16
S'<built-in method __reduce_ex__ of exceptions.NameError object>'
p17
sS'__getslice__'
p18
S"<method-wrapper '__getslice__' of exceptions.NameError object>"
p19
sS'__getitem__'
p20
S"<method-wrapper '__getitem__' of exceptions.NameError object>"
p21
sS'__setstate__'
p22
S'<built-in method __setstate__ of exceptions.NameError object>'
p23
sS'args'
p24
S'("name \'DEVELOPMENT_MENU\' is not defined",)'
p25
sS'__reduce__'
p26
S'<built-in method __reduce__ of exceptions.NameError object>'
p27
sS'__str__'
p28
S"<method-wrapper '__str__' of exceptions.NameError object>"
p29
sS'__format__'
p30
S'<built-in method __format__ of exceptions.NameError object>'
p31
sS'__getattribute__'
p32
S"<method-wrapper '__getattribute__' of exceptions.NameError object>"
p33
sS'__class__'
p34
S"<type 'exceptions.NameError'>"
p35
sS'__unicode__'
p36
S'<built-in method __unicode__ of exceptions.NameError object>'
p37
sS'__delattr__'
p38
S"<method-wrapper '__delattr__' of exceptions.NameError object>"
p39
sS'__subclasshook__'
p40
S'<built-in method __subclasshook__ of type object>'
p41
sS'__repr__'
p42
S"<method-wrapper '__repr__' of exceptions.NameError object>"
p43
sS'__dict__'
p44
S'{}'
p45
sS'__sizeof__'
p46
S'<built-in method __sizeof__ of exceptions.NameError object>'
p47
sS'__doc__'
p48
S"'Name not found globally.'"
p49
sS'__init__'
p50
S"<method-wrapper '__init__' of exceptions.NameError object>"
p51
sS'__new__'
p52
S'<built-in method __new__ of type object>'
p53
ssS'evalue'
p54
S"name 'DEVELOPMENT_MENU' is not defined"
p55
sS'request'
p56
cgluon.html
XML_unpickle
p57
(S's{d\x00\x00<div><table><tr><td style="font-weight:bold;vertical-align:top;">ajax</td><td style="vertical-align:top;">:</td><td><div>False</div></td></tr><tr><td style="font-weight:bold;vertical-align:top;">application</td><td style="vertical-align:top;">:</td><td><div>final_project</div></td></tr><tr><td style="font-weight:bold;vertical-align:top;">args</td><td style="vertical-align:top;">:</td><td><div><table></table></div></td></tr><tr><td style="font-weight:bold;vertical-align:top;">cid</td><td style="vertical-align:top;">:</td><td><div>None</div></td></tr><tr><td style="font-weight:bold;vertical-align:top;">client</td><td style="vertical-align:top;">:</td><td><div>127.0.0.1</div></td></tr><tr><td style="font-weight:bold;vertical-align:top;">controller</td><td style="vertical-align:top;">:</td><td><div>default</div></td></tr><tr><td style="font-weight:bold;vertical-align:top;">cookies</td><td style="vertical-align:top;">:</td><td><div><table><tr><td style="font-weight:bold;vertical-align:top;">session_id_admin</td><td style="vertical-align:top;">:</td><td><div>127.0.0.1-0b77877e-c9da-45f5-af4c-50e3295289ce<table><tr><td style="font-weight:bold;vertical-align:top;">comment</td><td style="vertical-align:top;">:</td><td><div></div></td></tr><tr><td style="font-weight:bold;vertical-align:top;">domain</td><td style="vertical-align:top;">:</td><td><div></div></td></tr><tr><td style="font-weight:bold;vertical-align:top;">expires</td><td style="vertical-align:top;">:</td><td><div></div></td></tr><tr><td style="font-weight:bold;vertical-align:top;">httponly</td><td style="vertical-align:top;">:</td><td><div></div></td></tr><tr><td style="font-weight:bold;vertical-align:top;">max-age</td><td style="vertical-align:top;">:</td><td><div></div></td></tr><tr><td style="font-weight:bold;vertical-align:top;">path</td><td style="vertical-align:top;">:</td><td><div></div></td></tr><tr><td style="font-weight:bold;vertical-align:top;">secure</td><td style="vertical-align:top;">:</td><td><div></div></td></tr><tr><td style="font-weight:bold;vertical-align:top;">version</td><td style="vertical-align:top;">:</td><td><div></div></td></tr></table></div></td></tr><tr><td style="font-weight:bold;vertical-align:top;">session_id_final_project</td><td style="vertical-align:top;">:</td><td><div>47:a6494920-1f1b-4b97-9884-5c8b34b73515<table><tr><td style="font-weight:bold;vertical-align:top;">comment</td><td style="vertical-align:top;">:</td><td><div></div></td></tr><tr><td style="font-weight:bold;vertical-align:top;">domain</td><td style="vertical-align:top;">:</td><td><div></div></td></tr><tr><td style="font-weight:bold;vertical-align:top;">expires</td><td style="vertical-align:top;">:</td><td><div></div></td></tr><tr><td style="font-weight:bold;vertical-align:top;">httponly</td><td style="vertical-align:top;">:</td><td><div></div></td></tr><tr><td style="font-weight:bold;vertical-align:top;">max-age</td><td style="vertical-align:top;">:</td><td><div></div></td></tr><tr><td style="font-weight:bold;vertical-align:top;">path</td><td style="vertical-align:top;">:</td><td><div></div></td></tr><tr><td style="font-weight:bold;vertical-align:top;">secure</td><td style="vertical-align:top;">:</td><td><div></div></td></tr><tr><td style="font-weight:bold;vertical-align:top;">version</td><td style="vertical-align:top;">:</td><td><div></div></td></tr></table></div></td></tr><tr><td style="font-weight:bold;vertical-align:top;">session_id_web2py_start_2016</td><td style="vertical-align:top;">:</td><td><div>10:ccd1bd39-0c3b-4412-b610-6170dfdc258b<table><tr><td style="font-weight:bold;vertical-align:top;">comment</td><td style="vertical-align:top;">:</td><td><div></div></td></tr><tr><td style="font-weight:bold;vertical-align:top;">domain</td><td style="vertical-align:top;">:</td><td><div></div></td></tr><tr><td style="font-weight:bold;vertical-align:top;">expires</td><td style="vertical-align:top;">:</td><td><div></div></td></tr><tr><td style="font-weight:bold;vertical-align:top;">httponly</td><td style="vertical-align:top;">:</td><td><div></div></td></tr><tr><td style="font-weight:bold;vertical-align:top;">max-age</td><td style="vertical-align:top;">:</td><td><div></div></td></tr><tr><td style="font-weight:bold;vertical-align:top;">path</td><td style="vertical-align:top;">:</td><td><div></div></td></tr><tr><td style="font-weight:bold;vertical-align:top;">secure</td><td style="vertical-align:top;">:</td><td><div></div></td></tr><tr><td style="font-weight:bold;vertical-align:top;">version</td><td style="vertical-align:top;">:</td><td><div></div></td></tr></table></div></td></tr><tr><td style="font-weight:bold;vertical-align:top;">session_id_welcome</td><td style="vertical-align:top;">:</td><td><div>127.0.0.1-9c0d18f5-3534-4081-bff1-2136d35423f0<table><tr><td style="font-weight:bold;vertical-align:top;">comment</td><td style="vertical-align:top;">:</td><td><div></div></td></tr><tr><td style="font-weight:bold;vertical-align:top;">domain</td><td style="vertical-align:top;">:</td><td><div></div></td></tr><tr><td style="font-weight:bold;vertical-align:top;">expires</td><td style="vertical-align:top;">:</td><td><div></div></td></tr><tr><td style="font-weight:bold;vertical-align:top;">httponly</td><td style="vertical-align:top;">:</td><td><div></div></td></tr><tr><td style="font-weight:bold;vertical-align:top;">max-age</td><td style="vertical-align:top;">:</td><td><div></div></td></tr><tr><td style="font-weight:bold;vertical-align:top;">path</td><td style="vertical-align:top;">:</td><td><div></div></td></tr><tr><td style="font-weight:bold;vertical-align:top;">secure</td><td style="vertical-align:top;">:</td><td><div></div></td></tr><tr><td style="font-weight:bold;vertical-align:top;">version</td><td style="vertical-align:top;">:</td><td><div></div></td></tr></table></div></td></tr></table></div></td></tr><tr><td style="font-weight:bold;vertical-align:top;">env</td><td style="vertical-align:top;">:</td><td><div><table><tr><td style="font-weight:bold;vertical-align:top;">HTTP_ACCEPT</td><td style="vertical-align:top;">:</td><td><div>text/html,application/xhtml+xml,application/xml;q=0.9,image/webp,*/*;q=0.8</div></td></tr><tr><td style="font-weight:bold;vertical-align:top;">HTTP_ACCEPT_ENCODING</td><td style="vertical-align:top;">:</td><td><div>gzip, deflate, sdch</div></td></tr><tr><td style="font-weight:bold;vertical-align:top;">HTTP_ACCEPT_LANGUAGE</td><td style="vertical-align:top;">:</td><td><div>en-US,en;q=0.8</div></td></tr><tr><td style="font-weight:bold;vertical-align:top;">HTTP_CACHE_CONTROL</td><td style="vertical-align:top;">:</td><td><div>max-age=0</div></td></tr><tr><td style="font-weight:bold;vertical-align:top;">HTTP_CONNECTION</td><td style="vertical-align:top;">:</td><td><div>keep-alive</div></td></tr><tr><td style="font-weight:bold;vertical-align:top;">HTTP_COOKIE</td><td style="vertical-align:top;">:</td><td><div>session_id_welcome=127.0.0.1-9c0d18f5-3534-4081-bff1-2136d35423f0; session_id_admin=127.0.0.1-0b77877e-c9da-45f5-af4c-50e3295289ce; session_id_web2py_start_2016=&quot;10:ccd1bd39-0c3b-4412-b610-6170dfdc258b&quot;; session_id_final_project=&quot;47:a6494920-1f1b-4b97-9884-5c8b34b73515&quot;</div></td></tr><tr><td style="font-weight:bold;vertical-align:top;">HTTP_HOST</td><td style="vertical-align:top;">:</td><td><div>127.0.0.1:8000</div></td></tr><tr><td style="font-weight:bold;vertical-align:top;">HTTP_REFERER</td><td style="vertical-align:top;">:</td><td><div>http://127.0.0.1:8000/final_project/default/index</div></td></tr><tr><td style="font-weight:bold;vertical-align:top;">HTTP_UPGRADE_INSECURE_REQUESTS</td><td style="vertical-align:top;">:</td><td><div>1</div></td></tr><tr><td style="font-weight:bold;vertical-align:top;">HTTP_USER_AGENT</td><td style="vertical-align:top;">:</td><td><div>Mozilla/5.0 (Macintosh; Intel Mac OS X 10_11_6) AppleWebKit/537.36 (KHTML, like Gecko) Chrome/53.0.2785.143 Safari/537.36</div></td></tr><tr><td style="font-weight:bold;vertical-align:top;">PATH_INFO</td><td style="vertical-align:top;">:</td><td><div>/final_project/default/index</div></td></tr><tr><td style="font-weight:bold;vertical-align:top;">QUERY_STRING</td><td style="vertical-align:top;">:</td><td><div></div></td></tr><tr><td style="font-weight:bold;vertical-align:top;">REMOTE_ADDR</td><td style="vertical-align:top;">:</td><td><div>127.0.0.1</div></td></tr><tr><td style="font-weight:bold;vertical-align:top;">REMOTE_PORT</td><td style="vertical-align:top;">:</td><td><div>49264</div></td></tr><tr><td style="font-weight:bold;vertical-align:top;">REQUEST_METHOD</td><td style="vertical-align:top;">:</td><td><div>GET</div></td></tr><tr><td style="font-weight:bold;vertical-align:top;">SCRIPT_NAME</td><td style="vertical-align:top;">:</td><td><div></div></td></tr><tr><td style="font-weight:bold;vertical-align:top;">SERVER_NAME</td><td style="vertical-align:top;">:</td><td><div>eduroam-169-233-211-111.ucsc.edu</div></td></tr><tr><td style="font-weight:bold;vertical-align:top;">SERVER_PORT</td><td style="vertical-align:top;">:</td><td><div>8000</div></td></tr><tr><td style="font-weight:bold;vertical-align:top;">SERVER_PROTOCOL</td><td style="vertical-align:top;">:</td><td><div>HTTP/1.1</div></td></tr><tr><td style="font-weight:bold;vertical-align:top;">SERVER_SOFTWARE</td><td style="vertical-align:top;">:</td><td><div>Rocket 1.2.6</div></td></tr><tr><td style="font-weight:bold;vertical-align:top;">app_folders</td><td style="vertical-align:top;">:</td><td><div>set([&#x27;/Users/Steven/Documents/CS183/web2py/applications/admin/&#x27;, &#x27;/Users/Steven/Documents/CS183/web2py/applications/final_project/&#x27;, &#x27;/Users/Steven/Documents/CS183/web2py/applications/web2py_start_2016/&#x27;, &#x27;/Users/Steven/Documents/CS183/web2py/applications/welcome/&#x27;])</div></td></tr><tr><td style="font-weight:bold;vertical-align:top;">applications_parent</td><td style="vertical-align:top;">:</td><td><div>/Users/Steven/Documents/CS183/web2py</div></td></tr><tr><td style="font-weight:bold;vertical-align:top;">cmd_args</td><td style="vertical-align:top;">:</td><td><div><table></table></div></td></tr><tr><td style="font-weight:bold;vertical-align:top;">cmd_options</td><td style="vertical-align:top;">:</td><td><div>&lt;Values at 0x10a3cb950: {&#x27;verbose&#x27;: False, &#x27;ip&#x27;: &#x27;127.0.0.1&#x27;, &#x27;debuglevel&#x27;: 30, &#x27;with_scheduler&#x27;: False, &#x27;shutdown_timeout&#x27;: 5, &#x27;taskbar&#x27;: False, &#x27;with_coverage&#x27;: False, &#x27;pid_filename&#x27;: &#x27;httpserver.pid&#x27;, &#x27;maxthreads&#x27;: None, &#x27;softcron&#x27;: False, &#x27;server_name&#x27;: &#x27;eduroam-169-233-211-111.ucsc.edu&#x27;, &#x27;bpython&#x27;: False, &#x27;nogui&#x27;: False, &#x27;port&#x27;: 8000, &#x27;print_errors&#x27;: True, &#x27;extcron&#x27;: False, &#x27;runcron&#x27;: False, &#x27;run_system_tests&#x27;: False, &#x27;test&#x27;: None, &#x27;folder&#x27;: &#x27;/Users/Steven/Documents/CS183/web2py&#x27;, &#x27;config&#x27;: &#x27;&#x27;, &#x27;minthreads&#x27;: None, &#x27;shell&#x27;: None, &#x27;run&#x27;: &#x27;&#x27;, &#x27;log_filename&#x27;: &#x27;httpserver.log&#x27;, &#x27;profiler_dir&#x27;: None, &#x27;args&#x27;: [&#x27;&#x27;], &#x27;socket_timeout&#x27;: 5, &#x27;ssl_ca_certificate&#x27;: None, &#x27;scheduler&#x27;: None, &#x27;interfaces&#x27;: None, &#x27;ssl_private_key&#x27;: &#x27;&#x27;, &#x27;gae&#x27;: None, &#x27;password&#x27;: &#x27;******&#x27;, &#x27;request_queue_size&#x27;: 5, &#x27;ssl_certificate&#x27;: &#x27;&#x27;, &#x27;cronjob&#x27;: False, &#x27;numthreads&#x27;: None, &#x27;quiet&#x27;: False, &#x27;import_models&#x27;: False, &#x27;timeout&#x27;: 10, &#x27;plain&#x27;: False, &#x27;nobanner&#x27;: False}&gt;</div></td></tr><tr><td style="font-weight:bold;vertical-align:top;">db_sessions</td><td style="vertical-align:top;">:</td><td><div>set([&#x27;web2py_start_2016&#x27;, &#x27;final_project&#x27;])</div></td></tr><tr><td style="font-weight:bold;vertical-align:top;">debugging</td><td style="vertical-align:top;">:</td><td><div>True</div></td></tr><tr><td style="font-weight:bold;vertical-align:top;">gluon_parent</td><td style="vertical-align:top;">:</td><td><div>/Users/Steven/Documents/CS183/web2py</div></td></tr><tr><td style="font-weight:bold;vertical-align:top;">http_accept</td><td style="vertical-align:top;">:</td><td><div>text/html,application/xhtml+xml,application/xml;q=0.9,image/webp,*/*;q=0.8</div></td></tr><tr><td style="font-weight:bold;vertical-align:top;">http_accept_encoding</td><td style="vertical-align:top;">:</td><td><div>gzip, deflate, sdch</div></td></tr><tr><td style="font-weight:bold;vertical-align:top;">http_accept_language</td><td style="vertical-align:top;">:</td><td><div>en-US,en;q=0.8</div></td></tr><tr><td style="font-weight:bold;vertical-align:top;">http_cache_control</td><td style="vertical-align:top;">:</td><td><div>max-age=0</div></td></tr><tr><td style="font-weight:bold;vertical-align:top;">http_connection</td><td style="vertical-align:top;">:</td><td><div>keep-alive</div></td></tr><tr><td style="font-weight:bold;vertical-align:top;">http_cookie</td><td style="vertical-align:top;">:</td><td><div>session_id_welcome=127.0.0.1-9c0d18f5-3534-4081-bff1-2136d35423f0; session_id_admin=127.0.0.1-0b77877e-c9da-45f5-af4c-50e3295289ce; session_id_web2py_start_2016=&quot;10:ccd1bd39-0c3b-4412-b610-6170dfdc258b&quot;; session_id_final_project=&quot;47:a6494920-1f1b-4b97-9884-5c8b34b73515&quot;</div></td></tr><tr><td style="font-weight:bold;vertical-align:top;">http_host</td><td style="vertical-align:top;">:</td><td><div>127.0.0.1:8000</div></td></tr><tr><td style="font-weight:bold;vertical-align:top;">http_referer</td><td style="vertical-align:top;">:</td><td><div>http://127.0.0.1:8000/final_project/default/index</div></td></tr><tr><td style="font-weight:bold;vertical-align:top;">http_upgrade_insecure_requests</td><td style="vertical-align:top;">:</td><td><div>1</div></td></tr><tr><td style="font-weight:bold;vertical-align:top;">http_user_agent</td><td style="vertical-align:top;">:</td><td><div>Mozilla/5.0 (Macintosh; Intel Mac OS X 10_11_6) AppleWebKit/537.36 (KHTML, like Gecko) Chrome/53.0.2785.143 Safari/537.36</div></td></tr><tr><td style="font-weight:bold;vertical-align:top;">is_jython</td><td style="vertical-align:top;">:</td><td><div>False</div></td></tr><tr><td style="font-weight:bold;vertical-align:top;">is_pypy</td><td style="vertical-align:top;">:</td><td><div>False</div></td></tr><tr><td style="font-weight:bold;vertical-align:top;">is_source</td><td style="vertical-align:top;">:</td><td><div>True</div></td></tr><tr><td style="font-weight:bold;vertical-align:top;">local_hosts</td><td style="vertical-align:top;">:</td><td><div><table><tr><td><div>eduroam-169-233-211-111.ucsc.edu</div></td></tr><tr><td><div>169.233.211.111</div></td></tr><tr><td><div>::1</div></td></tr><tr><td><div>::ffff:127.0.0.1</div></td></tr><tr><td><div>127.0.0.1</div></td></tr></table></div></td></tr><tr><td style="font-weight:bold;vertical-align:top;">path_info</td><td style="vertical-align:top;">:</td><td><div>/final_project/default/index</div></td></tr><tr><td style="font-weight:bold;vertical-align:top;">query_string</td><td style="vertical-align:top;">:</td><td><div></div></td></tr><tr><td style="font-weight:bold;vertical-align:top;">remote_addr</td><td style="vertical-align:top;">:</td><td><div>127.0.0.1</div></td></tr><tr><td style="font-weight:bold;vertical-align:top;">remote_port</td><td style="vertical-align:top;">:</td><td><div>49264</div></td></tr><tr><td style="font-weight:bold;vertical-align:top;">request_method</td><td style="vertical-align:top;">:</td><td><div>GET</div></td></tr><tr><td style="font-weight:bold;vertical-align:top;">request_uri</td><td style="vertical-align:top;">:</td><td><div>/final_project/default/index</div></td></tr><tr><td style="font-weight:bold;vertical-align:top;">script_name</td><td style="vertical-align:top;">:</td><td><div></div></td></tr><tr><td style="font-weight:bold;vertical-align:top;">server_name</td><td style="vertical-align:top;">:</td><td><div>eduroam-169-233-211-111.ucsc.edu</div></td></tr><tr><td style="font-weight:bold;vertical-align:top;">server_port</td><td style="vertical-align:top;">:</td><td><div>8000</div></td></tr><tr><td style="font-weight:bold;vertical-align:top;">server_protocol</td><td style="vertical-align:top;">:</td><td><div>HTTP/1.1</div></td></tr><tr><td style="font-weight:bold;vertical-align:top;">server_software</td><td style="vertical-align:top;">:</td><td><div>Rocket 1.2.6</div></td></tr><tr><td style="font-weight:bold;vertical-align:top;">web2py_path</td><td style="vertical-align:top;">:</td><td><div>/Users/Steven/Documents/CS183/web2py</div></td></tr><tr><td style="font-weight:bold;vertical-align:top;">web2py_version</td><td style="vertical-align:top;">:</td><td><div>2.14.6-stable+timestamp.2016.05.10.00.21.47</div></td></tr><tr><td style="font-weight:bold;vertical-align:top;">wsgi.errors</td><td style="vertical-align:top;">:</td><td><div>&lt;open file &#x27;&lt;stderr&gt;&#x27;, mode &#x27;w&#x27; at 0x1093de1e0&gt;</div></td></tr><tr><td style="font-weight:bold;vertical-align:top;">wsgi.file_wrapper</td><td style="vertical-align:top;">:</td><td><div>&lt;class wsgiref.util.FileWrapper at 0x10a367a10&gt;</div></td></tr><tr><td style="font-weight:bold;vertical-align:top;">wsgi.input</td><td style="vertical-align:top;">:</td><td><div>&lt;socket._fileobject object at 0x10fd632d0&gt;</div></td></tr><tr><td style="font-weight:bold;vertical-align:top;">wsgi.multiprocess</td><td style="vertical-align:top;">:</td><td><div>False</div></td></tr><tr><td style="font-weight:bold;vertical-align:top;">wsgi.multithread</td><td style="vertical-align:top;">:</td><td><div>True</div></td></tr><tr><td style="font-weight:bold;vertical-align:top;">wsgi.run_once</td><td style="vertical-align:top;">:</td><td><div>False</div></td></tr><tr><td style="font-weight:bold;vertical-align:top;">wsgi.url_scheme</td><td style="vertical-align:top;">:</td><td><div>http</div></td></tr><tr><td style="font-weight:bold;vertical-align:top;">wsgi.version</td><td style="vertical-align:top;">:</td><td><div><table><tr><td><div>1</div></td></tr><tr><td><div>0</div></td></tr></table></div></td></tr><tr><td style="font-weight:bold;vertical-align:top;">wsgi_errors</td><td style="vertical-align:top;">:</td><td><div>&lt;open file &#x27;&lt;stderr&gt;&#x27;, mode &#x27;w&#x27; at 0x1093de1e0&gt;</div></td></tr><tr><td style="font-weight:bold;vertical-align:top;">wsgi_file_wrapper</td><td style="vertical-align:top;">:</td><td><div>&lt;class wsgiref.util.FileWrapper at 0x10a367a10&gt;</div></td></tr><tr><td style="font-weight:bold;vertical-align:top;">wsgi_input</td><td style="vertical-align:top;">:</td><td><div>&lt;socket._fileobject object at 0x10fd632d0&gt;</div></td></tr><tr><td style="font-weight:bold;vertical-align:top;">wsgi_multiprocess</td><td style="vertical-align:top;">:</td><td><div>False</div></td></tr><tr><td style="font-weight:bold;vertical-align:top;">wsgi_multithread</td><td style="vertical-align:top;">:</td><td><div>True</div></td></tr><tr><td style="font-weight:bold;vertical-align:top;">wsgi_run_once</td><td style="vertical-align:top;">:</td><td><div>False</div></td></tr><tr><td style="font-weight:bold;vertical-align:top;">wsgi_url_scheme</td><td style="vertical-align:top;">:</td><td><div>http</div></td></tr><tr><td style="font-weight:bold;vertical-align:top;">wsgi_version</td><td style="vertical-align:top;">:</td><td><div><table><tr><td><div>1</div></td></tr><tr><td><div>0</div></td></tr></table></div></td></tr></table></div></td></tr><tr><td style="font-weight:bold;vertical-align:top;">extension</td><td style="vertical-align:top;">:</td><td><div>html</div></td></tr><tr><td style="font-weight:bold;vertical-align:top;">folder</td><td style="vertical-align:top;">:</td><td><div>/Users/Steven/Documents/CS183/web2py/applications/final_project/</div></td></tr><tr><td style="font-weight:bold;vertical-align:top;">function</td><td style="vertical-align:top;">:</td><td><div>index</div></td></tr><tr><td style="font-weight:bold;vertical-align:top;">global_settings</td><td style="vertical-align:top;">:</td><td><div><table><tr><td style="font-weight:bold;vertical-align:top;">app_folders</td><td style="vertical-align:top;">:</td><td><div>set([&#x27;/Users/Steven/Documents/CS183/web2py/applications/admin/&#x27;, &#x27;/Users/Steven/Documents/CS183/web2py/applications/final_project/&#x27;, &#x27;/Users/Steven/Documents/CS183/web2py/applications/web2py_start_2016/&#x27;, &#x27;/Users/Steven/Documents/CS183/web2py/applications/welcome/&#x27;])</div></td></tr><tr><td style="font-weight:bold;vertical-align:top;">applications_parent</td><td style="vertical-align:top;">:</td><td><div>/Users/Steven/Documents/CS183/web2py</div></td></tr><tr><td style="font-weight:bold;vertical-align:top;">cmd_args</td><td style="vertical-align:top;">:</td><td><div><table></table></div></td></tr><tr><td style="font-weight:bold;vertical-align:top;">cmd_options</td><td style="vertical-align:top;">:</td><td><div>&lt;Values at 0x10a3cb950: {&#x27;verbose&#x27;: False, &#x27;ip&#x27;: &#x27;127.0.0.1&#x27;, &#x27;debuglevel&#x27;: 30, &#x27;with_scheduler&#x27;: False, &#x27;shutdown_timeout&#x27;: 5, &#x27;taskbar&#x27;: False, &#x27;with_coverage&#x27;: False, &#x27;pid_filename&#x27;: &#x27;httpserver.pid&#x27;, &#x27;maxthreads&#x27;: None, &#x27;softcron&#x27;: False, &#x27;server_name&#x27;: &#x27;eduroam-169-233-211-111.ucsc.edu&#x27;, &#x27;bpython&#x27;: False, &#x27;nogui&#x27;: False, &#x27;port&#x27;: 8000, &#x27;print_errors&#x27;: True, &#x27;extcron&#x27;: False, &#x27;runcron&#x27;: False, &#x27;run_system_tests&#x27;: False, &#x27;test&#x27;: None, &#x27;folder&#x27;: &#x27;/Users/Steven/Documents/CS183/web2py&#x27;, &#x27;config&#x27;: &#x27;&#x27;, &#x27;minthreads&#x27;: None, &#x27;shell&#x27;: None, &#x27;run&#x27;: &#x27;&#x27;, &#x27;log_filename&#x27;: &#x27;httpserver.log&#x27;, &#x27;profiler_dir&#x27;: None, &#x27;args&#x27;: [&#x27;&#x27;], &#x27;socket_timeout&#x27;: 5, &#x27;ssl_ca_certificate&#x27;: None, &#x27;scheduler&#x27;: None, &#x27;interfaces&#x27;: None, &#x27;ssl_private_key&#x27;: &#x27;&#x27;, &#x27;gae&#x27;: None, &#x27;password&#x27;: &#x27;******&#x27;, &#x27;request_queue_size&#x27;: 5, &#x27;ssl_certificate&#x27;: &#x27;&#x27;, &#x27;cronjob&#x27;: False, &#x27;numthreads&#x27;: None, &#x27;quiet&#x27;: False, &#x27;import_models&#x27;: False, &#x27;timeout&#x27;: 10, &#x27;plain&#x27;: False, &#x27;nobanner&#x27;: False}&gt;</div></td></tr><tr><td style="font-weight:bold;vertical-align:top;">db_sessions</td><td style="vertical-align:top;">:</td><td><div>set([&#x27;web2py_start_2016&#x27;, &#x27;final_project&#x27;])</div></td></tr><tr><td style="font-weight:bold;vertical-align:top;">debugging</td><td style="vertical-align:top;">:</td><td><div>True</div></td></tr><tr><td style="font-weight:bold;vertical-align:top;">gluon_parent</td><td style="vertical-align:top;">:</td><td><div>/Users/Steven/Documents/CS183/web2py</div></td></tr><tr><td style="font-weight:bold;vertical-align:top;">is_jython</td><td style="vertical-align:top;">:</td><td><div>False</div></td></tr><tr><td style="font-weight:bold;vertical-align:top;">is_pypy</td><td style="vertical-align:top;">:</td><td><div>False</div></td></tr><tr><td style="font-weight:bold;vertical-align:top;">is_source</td><td style="vertical-align:top;">:</td><td><div>True</div></td></tr><tr><td style="font-weight:bold;vertical-align:top;">local_hosts</td><td style="vertical-align:top;">:</td><td><div><table><tr><td><div>eduroam-169-233-211-111.ucsc.edu</div></td></tr><tr><td><div>169.233.211.111</div></td></tr><tr><td><div>::1</div></td></tr><tr><td><div>::ffff:127.0.0.1</div></td></tr><tr><td><div>127.0.0.1</div></td></tr></table></div></td></tr><tr><td style="font-weight:bold;vertical-align:top;">web2py_version</td><td style="vertical-align:top;">:</td><td><div>2.14.6-stable+timestamp.2016.05.10.00.21.47</div></td></tr></table></div></td></tr><tr><td style="font-weight:bold;vertical-align:top;">is_https</td><td style="vertical-align:top;">:</td><td><div>False</div></td></tr><tr><td style="font-weight:bold;vertical-align:top;">is_local</td><td style="vertical-align:top;">:</td><td><div>True</div></td></tr><tr><td style="font-weight:bold;vertical-align:top;">is_restful</td><td style="vertical-align:top;">:</td><td><div>False</div></td></tr><tr><td style="font-weight:bold;vertical-align:top;">is_scheduler</td><td style="vertical-align:top;">:</td><td><div>False</div></td></tr><tr><td style="font-weight:bold;vertical-align:top;">is_shell</td><td style="vertical-align:top;">:</td><td><div>False</div></td></tr><tr><td style="font-weight:bold;vertical-align:top;">now</td><td style="vertical-align:top;">:</td><td><div>datetime.datetime(2016, 11, 12, 9, 25, 50, 241872)</div></td></tr><tr><td style="font-weight:bold;vertical-align:top;">raw_args</td><td style="vertical-align:top;">:</td><td><div></div></td></tr><tr><td style="font-weight:bold;vertical-align:top;">raw_extension</td><td style="vertical-align:top;">:</td><td><div>None</div></td></tr><tr><td style="font-weight:bold;vertical-align:top;">url</td><td style="vertical-align:top;">:</td><td><div>/final_project/default/index</div></td></tr><tr><td style="font-weight:bold;vertical-align:top;">utcnow</td><td style="vertical-align:top;">:</td><td><div>datetime.datetime(2016, 11, 12, 17, 25, 50, 241883)</div></td></tr><tr><td style="font-weight:bold;vertical-align:top;">wsgi</td><td style="vertical-align:top;">:</td><td><div>&lt;gluon.main.LazyWSGI object at 0x11049ded0&gt;</div></td></tr></table></div>'
tRp58
sS'frames'
p59
(lp60
(dp61
S'file'
p62
S'/Users/Steven/Documents/CS183/web2py/gluon/restricted.py'
p63
sS'dump'
p64
(dp65
S'environment'
p66
S"{'A': <class 'gluon.html.A'>, 'ANY_OF': <class 'gluon.validators.ANY_OF'>, 'ASSIGNJS': <function ASSIGNJS>, 'AppConfig': <function AppConfig>, 'Auth': <class 'gluon.tools.Auth'>, 'B': <class 'gluon.html.B'>, 'BEAUTIFY': <class 'gluon.html.BEAUTIFY'>, 'BODY': <class 'gluon.html.BODY'>, 'BR': <class 'gluon.html.BR'>, 'BUTTON': <class 'gluon.html.BUTTON'>, ...}"
p67
sS'ccode'
p68
S'<code object <module> at 0x11081cc30, file "/Use...lications/final_project/models/menu.py", line 11>'
p69
ssS'lnum'
p70
I227
sS'lines'
p71
(dp72
I224
S'            ccode = code'
p73
sI225
S'        else:'
p74
sI226
S'            ccode = compile2(code, layer)'
p75
sI227
S'        exec ccode in environment'
p76
sI228
S'    except HTTP:'
p77
sI229
S'        raise'
p78
sI230
S'    except RestrictedError:'
p79
sI231
S'        # do not encapsulate (obfuscate) the original RestrictedError'
p80
sI222
S'    try:'
p81
sI223
S'        if isinstance(code, types.CodeType):'
p82
ssS'call'
p83
S'(code=\'# -*- coding: utf-8 -*-\\n# this file is released ... _()\\n\\nif "auth" in locals():\\n    auth.wikimenu()\\n\', environment={\'A\': <class \'gluon.html.A\'>, \'ANY_OF\': <class \'gluon.validators.ANY_OF\'>, \'ASSIGNJS\': <function ASSIGNJS>, \'AppConfig\': <function AppConfig>, \'Auth\': <class \'gluon.tools.Auth\'>, \'B\': <class \'gluon.html.B\'>, \'BEAUTIFY\': <class \'gluon.html.BEAUTIFY\'>, \'BODY\': <class \'gluon.html.BODY\'>, \'BR\': <class \'gluon.html.BR\'>, \'BUTTON\': <class \'gluon.html.BUTTON\'>, ...}, layer=\'/Users/Steven/Documents/CS183/web2py/applications/final_project/models/menu.py\')'
p84
sS'func'
p85
S'restricted'
p86
sa(dp87
g62
S'/Users/Steven/Documents/CS183/web2py/applications/final_project/models/menu.py'
p88
sg64
(dp89
S'DEVELOPMENT_MENU'
p90
S'undefined'
p91
ssg70
I147
sg71
(dp92
I142
S"    #          'http://webchat.freenode.net/?channels=web2py'),"
p93
sI143
S'    #     ]),'
p94
sI144
S'    # ]'
p95
sI145
S''
sI146
S''
sI147
S'if DEVELOPMENT_MENU:'
p96
sI148
S'    _()'
p97
sI149
S''
sI150
S'if "auth" in locals():'
p98
sI151
S'    auth.wikimenu()'
p99
ssg83
S'()'
p100
sg85
S'<module>'
p101
sasS'pyver'
p102
S'Python 2.7.10: /usr/bin/python (prefix: /System/Library/Frameworks/Python.framework/Versions/2.7)'
p103
sS'session'
p104
g57
(S's\x9c\x00\x00\x00<div><table><tr><td style="font-weight:bold;vertical-align:top;">flash</td><td style="vertical-align:top;">:</td><td><div>None</div></td></tr></table></div>'
tRp105
sS'etype'
p106
S"<type 'exceptions.NameError'>"
p107
sS'date'
p108
S'Sat Nov 12 09:25:50 2016'
p109
sS'response'
p110
g57
(S'sn\x1b\x00\x00<div><table><tr><td style="font-weight:bold;vertical-align:top;">body</td><td style="vertical-align:top;">:</td><td><div>&lt;cStringIO.StringO object at 0x11051a570&gt;</div></td></tr><tr><td style="font-weight:bold;vertical-align:top;">cookies</td><td style="vertical-align:top;">:</td><td><div><table><tr><td style="font-weight:bold;vertical-align:top;">session_id_final_project</td><td style="vertical-align:top;">:</td><td><div>47:a6494920-1f1b-4b97-9884-5c8b34b73515<table><tr><td style="font-weight:bold;vertical-align:top;">comment</td><td style="vertical-align:top;">:</td><td><div></div></td></tr><tr><td style="font-weight:bold;vertical-align:top;">domain</td><td style="vertical-align:top;">:</td><td><div></div></td></tr><tr><td style="font-weight:bold;vertical-align:top;">expires</td><td style="vertical-align:top;">:</td><td><div></div></td></tr><tr><td style="font-weight:bold;vertical-align:top;">httponly</td><td style="vertical-align:top;">:</td><td><div></div></td></tr><tr><td style="font-weight:bold;vertical-align:top;">max-age</td><td style="vertical-align:top;">:</td><td><div></div></td></tr><tr><td style="font-weight:bold;vertical-align:top;">path</td><td style="vertical-align:top;">:</td><td><div>/</div></td></tr><tr><td style="font-weight:bold;vertical-align:top;">secure</td><td style="vertical-align:top;">:</td><td><div></div></td></tr><tr><td style="font-weight:bold;vertical-align:top;">version</td><td style="vertical-align:top;">:</td><td><div></div></td></tr></table></div></td></tr></table></div></td></tr><tr><td style="font-weight:bold;vertical-align:top;">delimiters</td><td style="vertical-align:top;">:</td><td><div><table><tr><td><div>{{</div></td></tr><tr><td><div>}}</div></td></tr></table></div></td></tr><tr><td style="font-weight:bold;vertical-align:top;">files</td><td style="vertical-align:top;">:</td><td><div><table></table></div></td></tr><tr><td style="font-weight:bold;vertical-align:top;">flash</td><td style="vertical-align:top;">:</td><td><div></div></td></tr><tr><td style="font-weight:bold;vertical-align:top;">form_label_separator</td><td style="vertical-align:top;">:</td><td><div></div></td></tr><tr><td style="font-weight:bold;vertical-align:top;">formstyle</td><td style="vertical-align:top;">:</td><td><div>bootstrap3_inline</div></td></tr><tr><td style="font-weight:bold;vertical-align:top;">generic_patterns</td><td style="vertical-align:top;">:</td><td><div><table><tr><td><div>*</div></td></tr></table></div></td></tr><tr><td style="font-weight:bold;vertical-align:top;">google_analytics_id</td><td style="vertical-align:top;">:</td><td><div>None</div></td></tr><tr><td style="font-weight:bold;vertical-align:top;">headers</td><td style="vertical-align:top;">:</td><td><div><table><tr><td style="font-weight:bold;vertical-align:top;">X-Powered-By</td><td style="vertical-align:top;">:</td><td><div>web2py</div></td></tr></table></div></td></tr><tr><td style="font-weight:bold;vertical-align:top;">menu</td><td style="vertical-align:top;">:</td><td><div><table></table></div></td></tr><tr><td style="font-weight:bold;vertical-align:top;">meta</td><td style="vertical-align:top;">:</td><td><div><table><tr><td style="font-weight:bold;vertical-align:top;">author</td><td style="vertical-align:top;">:</td><td><div>Your Name &lt;you@example.com&gt;</div></td></tr><tr><td style="font-weight:bold;vertical-align:top;">description</td><td style="vertical-align:top;">:</td><td><div>a cool new app</div></td></tr><tr><td style="font-weight:bold;vertical-align:top;">generator</td><td style="vertical-align:top;">:</td><td><div>Web2py Web Framework</div></td></tr><tr><td style="font-weight:bold;vertical-align:top;">keywords</td><td style="vertical-align:top;">:</td><td><div><table><tr><td><div>web2py</div></td></tr><tr><td><div>python</div></td></tr><tr><td><div>framework</div></td></tr></table></div></td></tr></table></div></td></tr><tr><td style="font-weight:bold;vertical-align:top;">models_to_run</td><td style="vertical-align:top;">:</td><td><div><table><tr><td><div>^\\w+\\.py$</div></td></tr><tr><td><div>^default/\\w+\\.py$</div></td></tr><tr><td><div>^default/index/\\w+\\.py$</div></td></tr></table></div></td></tr><tr><td style="font-weight:bold;vertical-align:top;">postprocessing</td><td style="vertical-align:top;">:</td><td><div><table></table></div></td></tr><tr><td style="font-weight:bold;vertical-align:top;">session_client</td><td style="vertical-align:top;">:</td><td><div>127.0.0.1</div></td></tr><tr><td style="font-weight:bold;vertical-align:top;">session_cookie_compression_level</td><td style="vertical-align:top;">:</td><td><div>None</div></td></tr><tr><td style="font-weight:bold;vertical-align:top;">session_cookie_expires</td><td style="vertical-align:top;">:</td><td><div>None</div></td></tr><tr><td style="font-weight:bold;vertical-align:top;">session_data_name</td><td style="vertical-align:top;">:</td><td><div>session_data_final_project</div></td></tr><tr><td style="font-weight:bold;vertical-align:top;">session_db_record_id</td><td style="vertical-align:top;">:</td><td><div>47L</div></td></tr><tr><td style="font-weight:bold;vertical-align:top;">session_db_table</td><td style="vertical-align:top;">:</td><td><div>&lt;Table web2py_session_final_project (id, locked, client_ip, created_datetime, modified_datetime, unique_key, session_data)&gt;</div></td></tr><tr><td style="font-weight:bold;vertical-align:top;">session_db_unique_key</td><td style="vertical-align:top;">:</td><td><div>a6494920-1f1b-4b97-9884-5c8b34b73515</div></td></tr><tr><td style="font-weight:bold;vertical-align:top;">session_hash</td><td style="vertical-align:top;">:</td><td><div>bcaa95ad4230fb34c9b383e753fbc2ad</div></td></tr><tr><td style="font-weight:bold;vertical-align:top;">session_id</td><td style="vertical-align:top;">:</td><td><div>47:a6494920-1f1b-4b97-9884-5c8b34b73515</div></td></tr><tr><td style="font-weight:bold;vertical-align:top;">session_id_name</td><td style="vertical-align:top;">:</td><td><div>session_id_final_project</div></td></tr><tr><td style="font-weight:bold;vertical-align:top;">session_masterapp</td><td style="vertical-align:top;">:</td><td><div>final_project</div></td></tr><tr><td style="font-weight:bold;vertical-align:top;">session_new</td><td style="vertical-align:top;">:</td><td><div>False</div></td></tr><tr><td style="font-weight:bold;vertical-align:top;">session_storage_type</td><td style="vertical-align:top;">:</td><td><div>db</div></td></tr><tr><td style="font-weight:bold;vertical-align:top;">status</td><td style="vertical-align:top;">:</td><td><div>200</div></td></tr><tr><td style="font-weight:bold;vertical-align:top;">subtitle</td><td style="vertical-align:top;">:</td><td><div></div></td></tr><tr><td style="font-weight:bold;vertical-align:top;">title</td><td style="vertical-align:top;">:</td><td><div>Final Project</div></td></tr><tr><td style="font-weight:bold;vertical-align:top;">view</td><td style="vertical-align:top;">:</td><td><div>default/index.html</div></td></tr></table></div>'
tRp111
sS'locals'
p112
(dp113
S'Service'
p114
S"<class 'gluon.tools.Service'>"
p115
sS'FORMAT'
p116
S"'%(asctime)s %(levelname)s %(process)s %(thread)s %(funcName)s():%(lineno)d %(message)s'"
p117
sS'OBJECT'
p118
S"<class 'gluon.html.OBJECT'>"
p119
sS'SQLDB'
p120
S"<class 'pydal.base.DAL'>"
p121
sg104
S"<Storage {'flash': None}>"
p122
sS'LINK'
p123
S"<class 'gluon.html.LINK'>"
p124
sS'BR'
p125
S"<class 'gluon.html.BR'>"
p126
sS'local_import'
p127
S'<function <lambda>>'
p128
sS'OPTGROUP'
p129
S"<class 'gluon.html.OPTGROUP'>"
p130
sS'LI'
p131
S"<class 'gluon.html.LI'>"
p132
sS'PRE'
p133
S"<class 'gluon.html.PRE'>"
p134
sS'IS_INT_IN_RANGE'
p135
S"<class 'gluon.validators.IS_INT_IN_RANGE'>"
p136
sS'icon_your_review'
p137
S'<gluon.html.I object>'
p138
sS'IS_LOWER'
p139
S"<class 'gluon.validators.IS_LOWER'>"
p140
sS'IS_STRONG'
p141
S"<class 'gluon.validators.IS_STRONG'>"
p142
sS'cache'
p143
S'<gluon.cache.Cache object>'
p144
sS'IS_IN_DB'
p145
S"<class 'gluon.validators.IS_IN_DB'>"
p146
sS'TAG'
p147
S'<gluon.html.__TAG__ object>'
p148
sS'SQLField'
p149
S"<class 'pydal.objects.Field'>"
p150
sS'mail'
p151
S'<gluon.tools.Mail object>'
p152
sS'logger'
p153
S'<logging.Logger object>'
p154
sS'icon_reviews'
p155
S'<gluon.html.I object>'
p156
sS'BODY'
p157
S"<class 'gluon.html.BODY'>"
p158
sS'IS_DATE_IN_RANGE'
p159
S"<class 'gluon.validators.IS_DATE_IN_RANGE'>"
p160
sS'icon_details'
p161
S'<gluon.html.I object>'
p162
sS'TH'
p163
S"<class 'gluon.html.TH'>"
p164
sS'URL'
p165
S'<function URL>'
p166
sS'__file__'
p167
S"'/Users/Steven/Documents/CS183/web2py/applications/final_project/models/menu.py'"
p168
sS'db'
p169
S'<DAL uri="sqlite://storage.sqlite">'
p170
sS'auth'
p171
S'<gluon.tools.Auth object>'
p172
sS'P'
S"<class 'gluon.html.P'>"
p173
sS'icon_add'
p174
S'<gluon.html.I object>'
p175
sS'TFOOT'
p176
S"<class 'gluon.html.TFOOT'>"
p177
sS'icon_hide'
p178
S'<gluon.html.I object>'
p179
sS'XHTML'
p180
S"<class 'gluon.html.XHTML'>"
p181
sS'ON'
p182
S'True'
p183
sS'OL'
p184
S"<class 'gluon.html.OL'>"
p185
sS'TEXTAREA'
p186
S"<class 'gluon.html.TEXTAREA'>"
p187
sS'MENU'
p188
S"<class 'gluon.html.MENU'>"
p189
sS'icon_spinner_still'
p190
S'<gluon.html.I object>'
p191
sS'LOAD'
p192
S'<function LOAD>'
p193
sS'CODE'
p194
S"<class 'gluon.html.CODE'>"
p195
sS'HTTP'
p196
S"<class 'gluon.http.HTTP'>"
p197
sS'HR'
p198
S"<class 'gluon.html.HR'>"
p199
sS'IS_DATETIME'
p200
S"<class 'gluon.validators.IS_DATETIME'>"
p201
sS'HEAD'
p202
S"<class 'gluon.html.HEAD'>"
p203
sS'LABEL'
p204
S"<class 'gluon.html.LABEL'>"
p205
sS'CLEANUP'
p206
S"<class 'gluon.validators.CLEANUP'>"
p207
sS'plugins'
p208
S'<gluon.tools.PluginManager object>'
p209
sS'SELECT'
p210
S"<class 'gluon.html.SELECT'>"
p211
sS'CENTER'
p212
S"<class 'gluon.html.CENTER'>"
p213
sS'Auth'
p214
S"<class 'gluon.tools.Auth'>"
p215
sS'__builtins__'
p216
S"{'ArithmeticError': <type 'exceptions.ArithmeticError'>, 'AssertionError': <type 'exceptions.AssertionError'>, 'AttributeError': <type 'exceptions.AttributeError'>, 'BaseException': <type 'exceptions.BaseException'>, 'BufferError': <type 'exceptions.BufferError'>, 'BytesWarning': <type 'exceptions.BytesWarning'>, 'DeprecationWarning': <type 'exceptions.DeprecationWarning'>, 'EOFError': <type 'exceptions.EOFError'>, 'Ellipsis': Ellipsis, 'EnvironmentError': <type 'exceptions.EnvironmentError'>, ...}"
p217
sS'HTML'
p218
S"<class 'gluon.html.HTML'>"
p219
sS'SQLFORM'
p220
S"<class 'gluon.sqlhtml.SQLFORM'>"
p221
sS'icon_all_paper'
p222
S'<gluon.html.I object>'
p223
sS'icon_primary_paper'
p224
S'<gluon.html.I object>'
p225
sS'EM'
p226
S"<class 'gluon.html.EM'>"
p227
sS'redirect'
p228
S'<function redirect>'
p229
sS'FIELDSET'
p230
S"<class 'gluon.html.FIELDSET'>"
p231
sS'IS_EQUAL_TO'
p232
S"<class 'gluon.validators.IS_EQUAL_TO'>"
p233
sS'embed64'
p234
S'<function embed64>'
p235
sS'IS_LIST_OF'
p236
S"<class 'gluon.validators.IS_LIST_OF'>"
p237
sS'__name__'
p238
S"'__restricted__'"
p239
sS'EMBED'
p240
S"<class 'gluon.html.EMBED'>"
p241
sS'_'
S'<function _>'
p242
sS'FORM'
p243
S"<class 'gluon.html.FORM'>"
p244
sS'logging'
p245
S"<module 'logging' from '/System/Library/Framewor...Versions/2.7/lib/python2.7/logging/__init__.pyc'>"
p246
sS'myconf'
p247
S"{'forms': {'formstyle': 'bootstrap3_inline', 'se...': {'names': 'localhost:*, 127.0.0.1:*, *:*, *'}}"
p248
sS'H2'
p249
S"<class 'gluon.html.H2'>"
p250
sS'H3'
p251
S"<class 'gluon.html.H3'>"
p252
sS'AppConfig'
p253
S'<function AppConfig>'
p254
sS'H1'
p255
S"<class 'gluon.html.H1'>"
p256
sS'H6'
p257
S"<class 'gluon.html.H6'>"
p258
sS'H4'
p259
S"<class 'gluon.html.H4'>"
p260
sS'H5'
p261
S"<class 'gluon.html.H5'>"
p262
sS'UL'
p263
S"<class 'gluon.html.UL'>"
p264
sS'IS_UPPER'
p265
S"<class 'gluon.validators.IS_UPPER'>"
p266
sS'xmlescape'
p267
S'<function xmlescape>'
p268
sS'IS_TIME'
p269
S"<class 'gluon.validators.IS_TIME'>"
p270
sS'OPTION'
p271
S"<class 'gluon.html.OPTION'>"
p272
sS'TITLE'
p273
S"<class 'gluon.html.TITLE'>"
p274
sS'icon_view'
p275
S'<gluon.html.I object>'
p276
sS'CRYPT'
p277
S"<class 'gluon.validators.CRYPT'>"
p278
sS'IS_EMPTY_OR'
p279
S"<class 'gluon.validators.IS_EMPTY_OR'>"
p280
sS'MARKMIN'
p281
S"<class 'gluon.html.MARKMIN'>"
p282
sS'INPUT'
p283
S"<class 'gluon.html.INPUT'>"
p284
sS'STRONG'
p285
S"<class 'gluon.html.STRONG'>"
p286
sS'COL'
p287
S"<class 'gluon.html.COL'>"
p288
sS'service'
p289
S'<gluon.tools.Service object>'
p290
sS'SCRIPT'
p291
S"<class 'gluon.html.SCRIPT'>"
p292
sS'TABLE'
p293
S"<class 'gluon.html.TABLE'>"
p294
sS'IS_IPV4'
p295
S"<class 'gluon.validators.IS_IPV4'>"
p296
sS'IS_LENGTH'
p297
S"<class 'gluon.validators.IS_LENGTH'>"
p298
sS'IS_IPV6'
p299
S"<class 'gluon.validators.IS_IPV6'>"
p300
sS'XML'
p301
S"<class 'gluon.html.XML'>"
p302
sS'B'
S"<class 'gluon.html.B'>"
p303
sS'IMG'
p304
S"<class 'gluon.html.IMG'>"
p305
sS'SQLTABLE'
p306
S"<class 'gluon.sqlhtml.SQLTABLE'>"
p307
sS'IS_MATCH'
p308
S"<class 'gluon.validators.IS_MATCH'>"
p309
sS'IS_ALPHANUMERIC'
p310
S"<class 'gluon.validators.IS_ALPHANUMERIC'>"
p311
sS'icon_empty'
p312
S'<gluon.html.I object>'
p313
sS'SPAN'
p314
S"<class 'gluon.html.SPAN'>"
p315
sS'IS_JSON'
p316
S"<class 'gluon.validators.IS_JSON'>"
p317
sS'IS_IPADDRESS'
p318
S"<class 'gluon.validators.IS_IPADDRESS'>"
p319
sS'IS_SLUG'
p320
S"<class 'gluon.validators.IS_SLUG'>"
p321
sS'BEAUTIFY'
p322
S"<class 'gluon.html.BEAUTIFY'>"
p323
sS'META'
p324
S"<class 'gluon.html.META'>"
p325
sS'icon_delete'
p326
S'<gluon.html.I object>'
p327
sS'BUTTON'
p328
S"<class 'gluon.html.BUTTON'>"
p329
sS'IS_DATE'
p330
S"<class 'gluon.validators.IS_DATE'>"
p331
sS'IS_EMAIL'
p332
S"<class 'gluon.validators.IS_EMAIL'>"
p333
sS'IS_NOT_EMPTY'
p334
S"<class 'gluon.validators.IS_NOT_EMPTY'>"
p335
sg56
S"<Storage {'_vars': <Storage {}>, 'function': 'in...ments/CS183/web2py/applications/final_project/'}>"
p336
sS'TBODY'
p337
S"<class 'gluon.html.TBODY'>"
p338
sS'CAT'
p339
S"<class 'gluon.html.CAT'>"
p340
sS'icon_pick_review'
p341
S'<gluon.html.SPAN object>'
p342
sS'Field'
p343
S"<class 'pydal.objects.Field'>"
p344
sS'IS_LIST_OF_EMAILS'
p345
S"<class 'gluon.validators.IS_LIST_OF_EMAILS'>"
p346
sS'DIV'
p347
S"<class 'gluon.html.DIV'>"
p348
sS'LEGEND'
p349
S"<class 'gluon.html.LEGEND'>"
p350
sS'COLGROUP'
p351
S"<class 'gluon.html.COLGROUP'>"
p352
sS'DAL'
p353
S"<class 'pydal.base.DAL'>"
p354
sS'ASSIGNJS'
p355
S'<function ASSIGNJS>'
p356
sS'icon_edit'
p357
S'<gluon.html.I object>'
p358
sS'TR'
p359
S"<class 'gluon.html.TR'>"
p360
sS'__package__'
p361
S'None'
p362
sS'IFRAME'
p363
S"<class 'gluon.html.IFRAME'>"
p364
sS'TD'
p365
S"<class 'gluon.html.TD'>"
p366
sS'PluginManager'
p367
S"<class 'gluon.tools.PluginManager'>"
p368
sS'IS_URL'
p369
S"<class 'gluon.validators.IS_URL'>"
p370
sS'A'
S"<class 'gluon.html.A'>"
p371
sS'STYLE'
p372
S"<class 'gluon.html.STYLE'>"
p373
sS'icon_cancel'
p374
S'<gluon.html.I object>'
p375
sS'IS_DATETIME_IN_RANGE'
p376
S"<class 'gluon.validators.IS_DATETIME_IN_RANGE'>"
p377
sS'IS_IMAGE'
p378
S"<class 'gluon.validators.IS_IMAGE'>"
p379
sS'I'
S"<class 'gluon.html.I'>"
p380
sS'sys'
p381
S"<module 'sys' (built-in)>"
p382
sS'IS_NOT_IN_DB'
p383
S"<class 'gluon.validators.IS_NOT_IN_DB'>"
p384
sg110
S"<Storage {'body': <cStringIO.StringO object at 0...y, session_data)>, 'view': 'default/index.html'}>"
p385
sS'THEAD'
p386
S"<class 'gluon.html.THEAD'>"
p387
sS'ANY_OF'
p388
S"<class 'gluon.validators.ANY_OF'>"
p389
sS'IS_NULL_OR'
p390
S"<class 'gluon.validators.IS_EMPTY_OR'>"
p391
sS'IS_FLOAT_IN_RANGE'
p392
S"<class 'gluon.validators.IS_FLOAT_IN_RANGE'>"
p393
sS'IS_EXPR'
p394
S"<class 'gluon.validators.IS_EXPR'>"
p395
sS'IS_IN_SET'
p396
S"<class 'gluon.validators.IS_IN_SET'>"
p397
sS'IS_UPLOAD_FILENAME'
p398
S"<class 'gluon.validators.IS_UPLOAD_FILENAME'>"
p399
sS'IS_DECIMAL_IN_RANGE'
p400
S"<class 'gluon.validators.IS_DECIMAL_IN_RANGE'>"
p401
sS'TT'
p402
S"<class 'gluon.html.TT'>"
p403
sS'T'
S'<gluon.languages.translator object>'
p404
sssS'traceback'
p405
S'Traceback (most recent call last):\n  File "/Users/Steven/Documents/CS183/web2py/gluon/restricted.py", line 227, in restricted\n    exec ccode in environment\n  File "/Users/Steven/Documents/CS183/web2py/applications/final_project/models/menu.py", line 147, in <module>\n    if DEVELOPMENT_MENU:\nNameError: name \'DEVELOPMENT_MENU\' is not defined\n'
p406
s.